
lab7.elf:     file format elf32-littlenios2
lab7.elf
architecture: nios2:r1, flags 0x00000112:
EXEC_P, HAS_SYMS, D_PAGED
start address 0x04000230

Program Header:
    LOAD off    0x00001000 vaddr 0x04000000 paddr 0x04000000 align 2**12
         filesz 0x00000020 memsz 0x00000020 flags r-x
    LOAD off    0x00001020 vaddr 0x04000020 paddr 0x04000020 align 2**12
         filesz 0x00013f50 memsz 0x00013f50 flags r-x
    LOAD off    0x00014f70 vaddr 0x04013f70 paddr 0x04015eb8 align 2**12
         filesz 0x00001f48 memsz 0x00001f48 flags rw-
    LOAD off    0x00017e00 vaddr 0x04017e00 paddr 0x04017e00 align 2**12
         filesz 0x00000000 memsz 0x00000160 flags rw-

Sections:
Idx Name          Size      VMA       LMA       File off  Algn
  0 .entry        00000020  04000000  04000000  00001000  2**5
                  CONTENTS, ALLOC, LOAD, READONLY, CODE
  1 .exceptions   00000210  04000020  04000020  00001020  2**2
                  CONTENTS, ALLOC, LOAD, READONLY, CODE
  2 .text         000139a8  04000230  04000230  00001230  2**2
                  CONTENTS, ALLOC, LOAD, READONLY, CODE
  3 .rodata       00000398  04013bd8  04013bd8  00014bd8  2**2
                  CONTENTS, ALLOC, LOAD, READONLY, DATA
  4 .rwdata       00001f48  04013f70  04015eb8  00014f70  2**2
                  CONTENTS, ALLOC, LOAD, DATA, SMALL_DATA
  5 .bss          00000160  04017e00  04017e00  00017e00  2**2
                  ALLOC, SMALL_DATA
  6 .sdram        00000000  04017f60  04017f60  00016eb8  2**0
                  CONTENTS
  7 .onchip_memory2_0 00000000  080051c0  080051c0  00016eb8  2**0
                  CONTENTS
  8 .comment      00000023  00000000  00000000  00016eb8  2**0
                  CONTENTS, READONLY
  9 .debug_aranges 00000fc8  00000000  00000000  00016ee0  2**3
                  CONTENTS, READONLY, DEBUGGING
 10 .debug_info   00026aa3  00000000  00000000  00017ea8  2**0
                  CONTENTS, READONLY, DEBUGGING
 11 .debug_abbrev 00009c07  00000000  00000000  0003e94b  2**0
                  CONTENTS, READONLY, DEBUGGING
 12 .debug_line   0000cf1f  00000000  00000000  00048552  2**0
                  CONTENTS, READONLY, DEBUGGING
 13 .debug_frame  0000238c  00000000  00000000  00055474  2**2
                  CONTENTS, READONLY, DEBUGGING
 14 .debug_str    00003abc  00000000  00000000  00057800  2**0
                  CONTENTS, READONLY, DEBUGGING
 15 .debug_loc    0001c9cf  00000000  00000000  0005b2bc  2**0
                  CONTENTS, READONLY, DEBUGGING
 16 .debug_alt_sim_info 00000040  00000000  00000000  00077c8c  2**2
                  CONTENTS, READONLY, DEBUGGING
 17 .debug_ranges 00001ab0  00000000  00000000  00077cd0  2**3
                  CONTENTS, READONLY, DEBUGGING
 18 .thread_model 00000003  00000000  00000000  0007cbde  2**0
                  CONTENTS, READONLY
 19 .cpu          0000000c  00000000  00000000  0007cbe1  2**0
                  CONTENTS, READONLY
 20 .qsys         00000001  00000000  00000000  0007cbed  2**0
                  CONTENTS, READONLY
 21 .simulation_enabled 00000001  00000000  00000000  0007cbee  2**0
                  CONTENTS, READONLY
 22 .sysid_hash   00000004  00000000  00000000  0007cbef  2**0
                  CONTENTS, READONLY
 23 .sysid_base   00000004  00000000  00000000  0007cbf3  2**0
                  CONTENTS, READONLY
 24 .sysid_time   00000004  00000000  00000000  0007cbf7  2**0
                  CONTENTS, READONLY
 25 .stderr_dev   0000000b  00000000  00000000  0007cbfb  2**0
                  CONTENTS, READONLY
 26 .stdin_dev    0000000b  00000000  00000000  0007cc06  2**0
                  CONTENTS, READONLY
 27 .stdout_dev   0000000b  00000000  00000000  0007cc11  2**0
                  CONTENTS, READONLY
 28 .sopc_system_name 00000008  00000000  00000000  0007cc1c  2**0
                  CONTENTS, READONLY
 29 .quartus_project_dir 0000002b  00000000  00000000  0007cc24  2**0
                  CONTENTS, READONLY
 30 .jdi          00004f1b  00000000  00000000  0007cc4f  2**0
                  CONTENTS, READONLY
 31 .sopcinfo     0008b7d8  00000000  00000000  00081b6a  2**0
                  CONTENTS, READONLY
SYMBOL TABLE:
04000000 l    d  .entry	00000000 .entry
04000020 l    d  .exceptions	00000000 .exceptions
04000230 l    d  .text	00000000 .text
04013bd8 l    d  .rodata	00000000 .rodata
04013f70 l    d  .rwdata	00000000 .rwdata
04017e00 l    d  .bss	00000000 .bss
04017f60 l    d  .sdram	00000000 .sdram
080051c0 l    d  .onchip_memory2_0	00000000 .onchip_memory2_0
00000000 l    d  .comment	00000000 .comment
00000000 l    d  .debug_aranges	00000000 .debug_aranges
00000000 l    d  .debug_info	00000000 .debug_info
00000000 l    d  .debug_abbrev	00000000 .debug_abbrev
00000000 l    d  .debug_line	00000000 .debug_line
00000000 l    d  .debug_frame	00000000 .debug_frame
00000000 l    d  .debug_str	00000000 .debug_str
00000000 l    d  .debug_loc	00000000 .debug_loc
00000000 l    d  .debug_alt_sim_info	00000000 .debug_alt_sim_info
00000000 l    d  .debug_ranges	00000000 .debug_ranges
00000000 l    df *ABS*	00000000 ../lab7_bsp//obj/HAL/src/crt0.o
04000268 l       .text	00000000 alt_after_alt_main
00000000 l    df *ABS*	00000000 alt_irq_handler.c
00000000 l    df *ABS*	00000000 alt_instruction_exception_entry.c
00000000 l    df *ABS*	00000000 main.c
04015e6c l     O .rwdata	00000004 vga_ctrl
04013f70 l     O .rwdata	00000170 colors
00000000 l    df *ABS*	00000000 palette_test.c
04015e70 l     O .rwdata	00000004 vga_ctrl
040140e0 l     O .rwdata	00000170 colors
00000000 l    df *ABS*	00000000 text_mode_vga_color.c
04015e74 l     O .rwdata	00000004 vga_ctrl
04014250 l     O .rwdata	00000170 colors
00000000 l    df *ABS*	00000000 lib2-divmod.c
00000000 l    df *ABS*	00000000 lib2-mul.c
00000000 l    df *ABS*	00000000 printf.c
00000000 l    df *ABS*	00000000 rand.c
00000000 l    df *ABS*	00000000 sprintf.c
00000000 l    df *ABS*	00000000 strlen.c
00000000 l    df *ABS*	00000000 vfprintf.c
04013c76 l     O .rodata	00000010 zeroes.4389
04013c86 l     O .rodata	00000010 blanks.4388
00000000 l    df *ABS*	00000000 vfprintf.c
04013c96 l     O .rodata	00000010 zeroes.4404
04005398 l     F .text	000000bc __sbprintf
04013ca6 l     O .rodata	00000010 blanks.4403
00000000 l    df *ABS*	00000000 wsetup.c
00000000 l    df *ABS*	00000000 dtoa.c
040055a8 l     F .text	00000228 quorem
00000000 l    df *ABS*	00000000 fflush.c
00000000 l    df *ABS*	00000000 findfp.c
04007100 l     F .text	00000008 __fp_unlock
04007114 l     F .text	0000019c __sinit.part.1
040072b0 l     F .text	00000008 __fp_lock
00000000 l    df *ABS*	00000000 mallocr.c
00000000 l    df *ABS*	00000000 fwalk.c
00000000 l    df *ABS*	00000000 impure.c
040143c0 l     O .rwdata	00000424 impure_data
00000000 l    df *ABS*	00000000 locale.c
04014804 l     O .rwdata	00000020 lc_ctype_charset
040147e4 l     O .rwdata	00000020 lc_message_charset
04014824 l     O .rwdata	00000038 lconv
00000000 l    df *ABS*	00000000 makebuf.c
00000000 l    df *ABS*	00000000 mallocr.c
00000000 l    df *ABS*	00000000 memchr.c
00000000 l    df *ABS*	00000000 memcpy.c
00000000 l    df *ABS*	00000000 memset.c
00000000 l    df *ABS*	00000000 mprec.c
04013cd8 l     O .rodata	0000000c p05.2768
00000000 l    df *ABS*	00000000 s_fpclassify.c
00000000 l    df *ABS*	00000000 sbrkr.c
00000000 l    df *ABS*	00000000 stdio.c
00000000 l    df *ABS*	00000000 strcmp.c
00000000 l    df *ABS*	00000000 vfprintf.c
04013dfc l     O .rodata	00000010 zeroes.4333
04013e0c l     O .rodata	00000010 blanks.4332
00000000 l    df *ABS*	00000000 vfprintf.c
0400b16c l     F .text	000000fc __sprint_r.part.0
04013e1c l     O .rodata	00000010 zeroes.4349
0400c7a8 l     F .text	000000bc __sbprintf
04013e2c l     O .rodata	00000010 blanks.4348
00000000 l    df *ABS*	00000000 writer.c
00000000 l    df *ABS*	00000000 closer.c
00000000 l    df *ABS*	00000000 mallocr.c
00000000 l    df *ABS*	00000000 fclose.c
00000000 l    df *ABS*	00000000 fputwc.c
00000000 l    df *ABS*	00000000 fstatr.c
00000000 l    df *ABS*	00000000 fvwrite.c
00000000 l    df *ABS*	00000000 int_errno.c
00000000 l    df *ABS*	00000000 isattyr.c
00000000 l    df *ABS*	00000000 lseekr.c
00000000 l    df *ABS*	00000000 memmove.c
00000000 l    df *ABS*	00000000 readr.c
00000000 l    df *ABS*	00000000 mallocr.c
00000000 l    df *ABS*	00000000 wbuf.c
00000000 l    df *ABS*	00000000 wcrtomb.c
00000000 l    df *ABS*	00000000 wctomb_r.c
00000000 l    df *ABS*	00000000 libgcc2.c
00000000 l    df *ABS*	00000000 libgcc2.c
00000000 l    df *ABS*	00000000 libgcc2.c
00000000 l    df *ABS*	00000000 adddf3.c
00000000 l    df *ABS*	00000000 divdf3.c
00000000 l    df *ABS*	00000000 eqdf2.c
00000000 l    df *ABS*	00000000 gedf2.c
00000000 l    df *ABS*	00000000 ledf2.c
00000000 l    df *ABS*	00000000 muldf3.c
00000000 l    df *ABS*	00000000 subdf3.c
00000000 l    df *ABS*	00000000 fixdfsi.c
00000000 l    df *ABS*	00000000 floatsidf.c
00000000 l    df *ABS*	00000000 floatunsidf.c
00000000 l    df *ABS*	00000000 libgcc2.c
00000000 l    df *ABS*	00000000 libgcc2.c
00000000 l    df *ABS*	00000000 alt_close.c
040112a8 l     F .text	0000003c alt_get_errno
00000000 l    df *ABS*	00000000 alt_dev.c
040113bc l     F .text	0000002c alt_dev_null_write
00000000 l    df *ABS*	00000000 alt_errno.c
00000000 l    df *ABS*	00000000 alt_fstat.c
040113e8 l     F .text	0000003c alt_get_errno
00000000 l    df *ABS*	00000000 alt_isatty.c
040114dc l     F .text	0000003c alt_get_errno
00000000 l    df *ABS*	00000000 alt_load.c
040115c4 l     F .text	00000068 alt_load_section
00000000 l    df *ABS*	00000000 alt_lseek.c
040116b0 l     F .text	0000003c alt_get_errno
00000000 l    df *ABS*	00000000 alt_main.c
00000000 l    df *ABS*	00000000 alt_malloc_lock.c
00000000 l    df *ABS*	00000000 alt_read.c
0401188c l     F .text	0000003c alt_get_errno
00000000 l    df *ABS*	00000000 alt_release_fd.c
00000000 l    df *ABS*	00000000 alt_sbrk.c
04015ea8 l     O .rwdata	00000004 heap_end
00000000 l    df *ABS*	00000000 alt_usleep.c
00000000 l    df *ABS*	00000000 alt_write.c
04011b30 l     F .text	0000003c alt_get_errno
00000000 l    df *ABS*	00000000 alt_sys_init.c
04011c6c l     F .text	00000034 alt_dev_reg
04014e0c l     O .rwdata	00001060 jtag_uart_0
00000000 l    df *ABS*	00000000 altera_avalon_jtag_uart_fd.c
00000000 l    df *ABS*	00000000 altera_avalon_jtag_uart_init.c
04011f64 l     F .text	0000020c altera_avalon_jtag_uart_irq
04012170 l     F .text	000000a0 altera_avalon_jtag_uart_timeout
00000000 l    df *ABS*	00000000 altera_avalon_jtag_uart_ioctl.c
00000000 l    df *ABS*	00000000 altera_avalon_jtag_uart_read.c
00000000 l    df *ABS*	00000000 altera_avalon_jtag_uart_write.c
00000000 l    df *ABS*	00000000 altera_avalon_timer_sc.c
040127a8 l     F .text	00000078 alt_avalon_timer_sc_irq
00000000 l    df *ABS*	00000000 alt_alarm_start.c
00000000 l    df *ABS*	00000000 alt_busy_sleep.c
00000000 l    df *ABS*	00000000 alt_dcache_flush_all.c
00000000 l    df *ABS*	00000000 alt_dev_llist_insert.c
04012b40 l     F .text	0000003c alt_get_errno
00000000 l    df *ABS*	00000000 alt_do_ctors.c
00000000 l    df *ABS*	00000000 alt_do_dtors.c
00000000 l    df *ABS*	00000000 alt_icache_flush_all.c
00000000 l    df *ABS*	00000000 alt_iic.c
00000000 l    df *ABS*	00000000 alt_iic_isr_register.c
00000000 l    df *ABS*	00000000 alt_io_redirect.c
04012fa0 l     F .text	000000e4 alt_open_fd
00000000 l    df *ABS*	00000000 alt_irq_vars.c
00000000 l    df *ABS*	00000000 alt_open.c
04013100 l     F .text	0000003c alt_get_errno
0401313c l     F .text	000000ec alt_file_locked
00000000 l    df *ABS*	00000000 alt_tick.c
00000000 l    df *ABS*	00000000 altera_nios2_gen2_irq.c
00000000 l    df *ABS*	00000000 alt_find_dev.c
00000000 l    df *ABS*	00000000 alt_find_file.c
00000000 l    df *ABS*	00000000 alt_get_fd.c
00000000 l    df *ABS*	00000000 atexit.c
00000000 l    df *ABS*	00000000 exit.c
00000000 l    df *ABS*	00000000 memcmp.c
00000000 l    df *ABS*	00000000 __atexit.c
00000000 l    df *ABS*	00000000 __call_atexit.c
00000000 l    df *ABS*	00000000 alt_exit.c
04017e34 g     O .bss	00000004 alt_instruction_exception_handler
040097a4 g     F .text	00000074 _mprec_log10
04009890 g     F .text	0000008c __any_on
0400d224 g     F .text	00000054 _isatty_r
04013ce4 g     O .rodata	00000028 __mprec_tinytens
040117c8 g     F .text	0000007c alt_main
04017e60 g     O .bss	00000100 alt_irq
0400d278 g     F .text	00000060 _lseek_r
04015eb8 g       *ABS*	00000000 __flash_rwdata_start
0400fc80 g     F .text	00000088 .hidden __eqdf2
04017f60 g       *ABS*	00000000 __alt_heap_start
04000bd0 g     F .text	0000003c printf
0400db50 g     F .text	0000009c _wcrtomb_r
04009abc g     F .text	0000005c __sseek
04007460 g     F .text	00000010 __sinit
0400d9f8 g     F .text	00000140 __swbuf_r
04007a6c g     F .text	0000007c _setlocale_r
040072b8 g     F .text	00000078 __sfmoreglue
04011868 g     F .text	00000024 __malloc_unlock
04000758 g     F .text	0000026c textVGAColorScreenSaver
0400d2d8 g     F .text	0000015c memmove
04007448 g     F .text	00000018 _cleanup
04008864 g     F .text	000000a8 _Balloc
0400fd08 g     F .text	000000dc .hidden __gtdf2
04013528 g     F .text	00000024 altera_nios2_gen2_irq_init
04000000 g     F .entry	0000000c __reset
04000020 g       *ABS*	00000000 __flash_exceptions_start
0400cd00 g     F .text	0000005c _fstat_r
04017e18 g     O .bss	00000004 errno
04009a38 g     F .text	00000008 __seofread
04009dcc g     F .text	000013a0 ___svfiprintf_internal_r
04017e20 g     O .bss	00000004 alt_argv
0401de6c g       *ABS*	00000000 _gp
04011b00 g     F .text	00000030 usleep
04000450 g     F .text	00000050 textVGAColorClr
04014c8c g     O .rwdata	00000180 alt_fd_list
0401354c g     F .text	00000090 alt_find_dev
040085f4 g     F .text	00000148 memcpy
04007108 g     F .text	0000000c _cleanup_r
040110c0 g     F .text	000000dc .hidden __floatsidf
04013084 g     F .text	0000007c alt_io_redirect
0400fde4 g     F .text	000000f4 .hidden __ltdf2
04013bd8 g       *ABS*	00000000 __DTOR_END__
040137a8 g     F .text	0000009c alt_exception_cause_generated_bad_addr
0400991c g     F .text	00000074 __fpclassifyd
04009700 g     F .text	000000a4 __ratio
0400c78c g     F .text	0000001c __vfiprintf_internal
04012368 g     F .text	0000021c altera_avalon_jtag_uart_read
04000ba0 g     F .text	00000030 _printf_r
080051c0 g       *ABS*	00000000 __alt_mem_onchip_memory2_0
04000abc g     F .text	00000064 .hidden __udivsi3
04011518 g     F .text	000000ac isatty
04013d34 g     O .rodata	000000c8 __mprec_tens
04007ae8 g     F .text	0000000c __locale_charset
04017e14 g     O .bss	00000004 __malloc_top_pad
04015e80 g     O .rwdata	00000004 __mb_cur_max
04007b18 g     F .text	0000000c _localeconv_r
0400cd5c g     F .text	000004c8 __sfvwrite_r
04008c98 g     F .text	0000003c __i2b
04009990 g     F .text	00000054 _sbrk_r
0400d434 g     F .text	00000060 _read_r
04015ea0 g     O .rwdata	00000004 alt_max_fd
0400c9f4 g     F .text	000000f0 _fclose_r
040070d0 g     F .text	00000030 fflush
04017e10 g     O .bss	00000004 __malloc_max_sbrked_mem
0400ea04 g     F .text	000008ac .hidden __adddf3
040094a8 g     F .text	0000010c __b2d
0400e440 g     F .text	000005c4 .hidden __umoddi3
040116ec g     F .text	000000dc lseek
04015e78 g     O .rwdata	00000004 _global_impure_ptr
0400d494 g     F .text	00000564 _realloc_r
04017f60 g       *ABS*	00000000 __bss_end
04012eb0 g     F .text	000000f0 alt_iic_isr_register
04013420 g     F .text	00000108 alt_tick
0400de44 g     F .text	000005fc .hidden __udivdi3
0400cc5c g     F .text	00000024 _fputwc_r
04013d0c g     O .rodata	00000028 __mprec_bigtens
04008a7c g     F .text	00000104 __s2b
0401119c g     F .text	000000a8 .hidden __floatunsidf
040091e8 g     F .text	00000060 __mcmp
04007480 g     F .text	00000018 __fp_lock_all
04012e64 g     F .text	0000004c alt_ic_irq_enabled
04013384 g     F .text	0000009c alt_alarm_stop
04017e28 g     O .bss	00000004 alt_irq_active
040000fc g     F .exceptions	000000d4 alt_irq_handler
04014c64 g     O .rwdata	00000028 alt_dev_null
04012b20 g     F .text	00000020 alt_dcache_flush_all
04008b80 g     F .text	00000068 __hi0bits
04011040 g     F .text	00000080 .hidden __fixdfsi
04015eb8 g       *ABS*	00000000 __ram_rwdata_end
04015e98 g     O .rwdata	00000008 alt_dev_list
04011b6c g     F .text	00000100 write
04013f70 g       *ABS*	00000000 __ram_rodata_end
04011424 g     F .text	000000b8 fstat
0400fde4 g     F .text	000000f4 .hidden __ledf2
04008f60 g     F .text	00000140 __pow5mult
0400b280 g     F .text	0000150c ___vfiprintf_internal_r
04017e08 g     O .bss	00000004 __nlocale_changed
04000b20 g     F .text	00000058 .hidden __umodsi3
04017f60 g       *ABS*	00000000 end
04011ea4 g     F .text	000000c0 altera_avalon_jtag_uart_init
040001d0 g     F .exceptions	00000060 alt_instruction_exception_entry
04013bd8 g       *ABS*	00000000 __CTOR_LIST__
08000000 g       *ABS*	00000000 __alt_stack_pointer
04012820 g     F .text	0000007c alt_avalon_timer_sc_init
04011244 g     F .text	00000064 .hidden __clzsi2
04012584 g     F .text	00000224 altera_avalon_jtag_uart_write
04007470 g     F .text	00000004 __sfp_lock_acquire
04008510 g     F .text	000000e4 memchr
040030a0 g     F .text	000022dc ___vfprintf_internal_r
04000c88 g     F .text	00000058 _sprintf_r
040075d4 g     F .text	00000310 _free_r
04007af4 g     F .text	00000010 __locale_mb_cur_max
04013a24 g     F .text	00000180 __call_exitprocs
04017e04 g     O .bss	00000004 __mlocale_changed
04015e84 g     O .rwdata	00000004 __malloc_sbrk_base
04000230 g     F .text	0000003c _start
04017e2c g     O .bss	00000004 _alt_tick_rate
04000c24 g     F .text	00000064 rand
040090a0 g     F .text	00000148 __lshift
04017e30 g     O .bss	00000004 _alt_nticks
040118c8 g     F .text	00000104 read
04011cd8 g     F .text	00000068 alt_sys_init
04009bfc g     F .text	000001d0 __ssprint_r
0401390c g     F .text	00000118 __register_exitproc
04008cd4 g     F .text	0000028c __multiply
04012210 g     F .text	00000068 altera_avalon_jtag_uart_close
04000b78 g     F .text	00000028 .hidden __mulsi3
04013f70 g       *ABS*	00000000 __ram_rwdata_start
04013bd8 g       *ABS*	00000000 __ram_rodata_start
04017e38 g     O .bss	00000028 __malloc_current_mallinfo
040095b4 g     F .text	0000014c __d2b
04011d40 g     F .text	00000060 altera_avalon_jtag_uart_read_fd
040136e4 g     F .text	000000c4 alt_get_fd
040129c8 g     F .text	00000158 alt_busy_sleep
0400c8c4 g     F .text	00000054 _close_r
04013890 g     F .text	0000007c memcmp
04011e00 g     F .text	00000050 altera_avalon_jtag_uart_close_fd
04017f60 g       *ABS*	00000000 __alt_stack_base
04011e50 g     F .text	00000054 altera_avalon_jtag_uart_ioctl_fd
04005454 g     F .text	00000154 __swsetup_r
0400f2b0 g     F .text	000009d0 .hidden __divdf3
04007330 g     F .text	00000118 __sfp
04009818 g     F .text	00000078 __copybits
0401485c g     O .rwdata	00000408 __malloc_av_
0400747c g     F .text	00000004 __sinit_lock_release
0400fed8 g     F .text	0000086c .hidden __muldf3
040099e4 g     F .text	00000054 __sread
040135dc g     F .text	00000108 alt_find_file
04012b7c g     F .text	000000a4 alt_dev_llist_insert
04011844 g     F .text	00000024 __malloc_lock
04011a50 g     F .text	000000b0 sbrk
04000de4 g     F .text	000022bc ___svfprintf_internal_r
04007074 g     F .text	0000005c _fflush_r
0400c918 g     F .text	000000dc _calloc_r
04017e00 g       *ABS*	00000000 __bss_start
0400873c g     F .text	00000128 memset
0400026c g     F .text	00000030 main
04017e24 g     O .bss	00000004 alt_envp
04017e0c g     O .bss	00000004 __malloc_max_total_mem
04011da0 g     F .text	00000060 altera_avalon_jtag_uart_write_fd
0400db38 g     F .text	00000018 __swbuf
04000c0c g     F .text	00000018 srand
04009b18 g     F .text	00000008 __sclose
08000000 g       *ABS*	00000000 __alt_heap_limit
0400cae4 g     F .text	00000014 fclose
040057d0 g     F .text	00001688 _dtoa_r
04007d04 g     F .text	0000080c _malloc_r
0400dcac g     F .text	00000030 __ascii_wctomb
04015ea4 g     O .rwdata	00000004 alt_errno
040078e4 g     F .text	000000c4 _fwalk
040009c4 g     F .text	00000084 .hidden __divsi3
040005b0 g     F .text	000001a8 setColorPalette
040074b0 g     F .text	00000124 _malloc_trim_r
04013bd8 g       *ABS*	00000000 __CTOR_END__
04009b20 g     F .text	000000dc strcmp
04013bd8 g       *ABS*	00000000 __flash_rodata_start
04013bd8 g       *ABS*	00000000 __DTOR_LIST__
0400fc80 g     F .text	00000088 .hidden __nedf2
04011ca0 g     F .text	00000038 alt_irq_init
040119cc g     F .text	00000084 alt_release_fd
04000ce0 g     F .text	0000006c sprintf
04013e3c g     O .rodata	00000100 .hidden __clz_tab
04017e00 g     O .bss	00000004 _PathLocale
04013844 g     F .text	00000014 atexit
0400c864 g     F .text	00000060 _write_r
04007b24 g     F .text	00000018 setlocale
04015e7c g     O .rwdata	00000004 _impure_ptr
04017e1c g     O .bss	00000004 alt_argc
04006e58 g     F .text	0000021c __sflush_r
04012c80 g     F .text	00000060 _do_dtors
04007b10 g     F .text	00000008 __locale_cjk_lang
04000020 g       .exceptions	00000000 alt_irq_entry
04009444 g     F .text	00000064 __ulp
04007498 g     F .text	00000018 __fp_unlock_all
04015e90 g     O .rwdata	00000008 alt_fs_list
04000020 g       *ABS*	00000000 __ram_exceptions_start
04007b3c g     F .text	0000000c localeconv
04012d00 g     F .text	00000050 alt_ic_isr_register
04015eb8 g       *ABS*	00000000 _edata
04017f60 g       *ABS*	00000000 _end
0400caf8 g     F .text	00000164 __fputwc
04000230 g       *ABS*	00000000 __ram_exceptions_end
04012278 g     F .text	000000f0 altera_avalon_jtag_uart_ioctl
040004a0 g     F .text	00000110 textVGADrawColorText
04012dd8 g     F .text	0000008c alt_ic_irq_disable
04009a40 g     F .text	0000007c __swrite
04015e88 g     O .rwdata	00000004 __malloc_trim_threshold
04007b04 g     F .text	0000000c __locale_msgcharset
04013858 g     F .text	00000038 exit
040079a8 g     F .text	000000c4 _fwalk_reent
04009248 g     F .text	000001fc __mdiff
04000a48 g     F .text	00000074 .hidden __modsi3
08000000 g       *ABS*	00000000 __alt_data_end
04000020 g     F .exceptions	00000000 alt_exception
04007474 g     F .text	00000004 __sfp_lock_release
04000000 g       *ABS*	00000000 __alt_mem_sdram
04013ba4 g     F .text	00000034 _exit
0401289c g     F .text	0000012c alt_alarm_start
0400dd38 g     F .text	0000010c .hidden __muldi3
04007b48 g     F .text	000001bc __smakebuf_r
04000d4c g     F .text	00000098 strlen
04013228 g     F .text	0000015c open
0400fd08 g     F .text	000000dc .hidden __gedf2
04015e8c g     O .rwdata	00000004 __wctomb
0400b268 g     F .text	00000018 __sprint_r
04012ce0 g     F .text	00000020 alt_icache_flush_all
04015eac g     O .rwdata	00000004 alt_priority_mask
04012d50 g     F .text	00000088 alt_ic_irq_enable
0400537c g     F .text	0000001c __vfprintf_internal
0400dcdc g     F .text	0000005c _wctomb_r
04010744 g     F .text	000008fc .hidden __subdf3
04008be8 g     F .text	000000b0 __lo0bits
04015eb0 g     O .rwdata	00000008 alt_alarm_list
04012c20 g     F .text	00000060 _do_ctors
0400dbec g     F .text	000000c0 wcrtomb
040112e4 g     F .text	000000d8 close
0400029c g     F .text	000001b4 paletteTest
0401162c g     F .text	00000084 alt_load
0400cc80 g     F .text	00000080 fputwc
04007478 g     F .text	00000004 __sinit_lock_acquire
04008934 g     F .text	00000148 __multadd
0400890c g     F .text	00000028 _Bfree



Disassembly of section .entry:

04000000 <__reset>:
 * Jump to the _start entry point in the .text section if reset code
 * is allowed or if optimizing for RTL simulation.
 */
#if defined(ALT_ALLOW_CODE_AT_RESET) || defined(ALT_SIM_OPTIMIZE)
    /* Jump to the _start entry point in the .text section. */
    movhi r1, %hi(_start)
 4000000:	00410034 	movhi	at,1024
    ori r1, r1, %lo(_start)
 4000004:	08408c14 	ori	at,at,560
    jmp r1
 4000008:	0800683a 	jmp	at
	...

Disassembly of section .exceptions:

04000020 <alt_exception>:

#else /* ALT_EXCEPTION_STACK disabled */
        /* 
         * Reserve space on normal stack for registers about to be pushed.
         */
        addi  sp, sp, -76
 4000020:	deffed04 	addi	sp,sp,-76
         * documentation for details).
         *
         * Leave a gap in the stack frame at 4(sp) for the muldiv handler to
         * store zero into.
         */
        stw   ra,  0(sp)
 4000024:	dfc00015 	stw	ra,0(sp)
        stw   r1,   8(sp)
 4000028:	d8400215 	stw	at,8(sp)
        stw   r2,  12(sp)
 400002c:	d8800315 	stw	r2,12(sp)
        stw   r3,  16(sp)
 4000030:	d8c00415 	stw	r3,16(sp)
        stw   r4,  20(sp)
 4000034:	d9000515 	stw	r4,20(sp)
        stw   r5,  24(sp)
 4000038:	d9400615 	stw	r5,24(sp)
        stw   r6,  28(sp)
 400003c:	d9800715 	stw	r6,28(sp)
        stw   r7,  32(sp)
 4000040:	d9c00815 	stw	r7,32(sp)
        rdctl r5, estatus   /* Read early to avoid usage stall */
 4000044:	000b307a 	rdctl	r5,estatus
        stw   r8,  36(sp)
 4000048:	da000915 	stw	r8,36(sp)
        stw   r9,  40(sp)
 400004c:	da400a15 	stw	r9,40(sp)
        stw   r10, 44(sp)
 4000050:	da800b15 	stw	r10,44(sp)
        stw   r11, 48(sp)
 4000054:	dac00c15 	stw	r11,48(sp)
        stw   r12, 52(sp)
 4000058:	db000d15 	stw	r12,52(sp)
        stw   r13, 56(sp)
 400005c:	db400e15 	stw	r13,56(sp)
        stw   r14, 60(sp)
 4000060:	db800f15 	stw	r14,60(sp)
        stw   r15, 64(sp)
 4000064:	dbc01015 	stw	r15,64(sp)
        /*
         * ea-4 contains the address of the instruction being executed
         * when the exception occured. For interrupt exceptions, we will
         * will be re-issue the isntruction. Store it in 72(sp)
         */
        stw   r5,  68(sp)  /* estatus */
 4000068:	d9401115 	stw	r5,68(sp)
        addi  r15, ea, -4  /* instruction that caused exception */
 400006c:	ebffff04 	addi	r15,ea,-4
        stw   r15,  72(sp)
 4000070:	dbc01215 	stw	r15,72(sp)
#else
        /*
         * Test to see if the exception was a software exception or caused 
         * by an external interrupt, and vector accordingly.
         */
        rdctl r4, ipending
 4000074:	0009313a 	rdctl	r4,ipending
        andi  r2, r5, 1
 4000078:	2880004c 	andi	r2,r5,1
        beq   r2, zero, .Lnot_irq
 400007c:	10000326 	beq	r2,zero,400008c <alt_exception+0x6c>
        beq   r4, zero, .Lnot_irq
 4000080:	20000226 	beq	r4,zero,400008c <alt_exception+0x6c>
        /*
         * Now that all necessary registers have been preserved, call 
         * alt_irq_handler() to process the interrupts.
         */

        call alt_irq_handler
 4000084:	40000fc0 	call	40000fc <alt_irq_handler>

        .section .exceptions.irqreturn, "xa"

        br    .Lexception_exit
 4000088:	00000706 	br	40000a8 <alt_exception+0x88>
         * upon completion, so we write ea (address of instruction *after*
         * the one where the exception occured) into 72(sp). The actual
         * instruction that caused the exception is written in r2, which these
         * handlers will utilize.
         */
        stw ea, 72(sp) /* EA is PC+4 so will skip over instruction causing exception */
 400008c:	df401215 	stw	ea,72(sp)
.Lunknown_16bit:
        addi.n r4, r4, 2 /* Need PC+2 to skip over instruction causing exception */
        stw r4, 72(sp)

#else /* CDX is not Enabled and all instructions are 32bits */
        ldw r2, -4(ea) /* Instruction value that caused exception */
 4000090:	e8bfff17 	ldw	r2,-4(ea)
         * debugger is present) or go into an infinite loop since the
         * handling behavior is undefined; in that case we will not return here.
         */

        /* Load exception-causing address as first argument (r4) */
        addi   r4, ea, -4
 4000094:	e93fff04 	addi	r4,ea,-4

        /* Call the instruction-exception entry */
        call   alt_instruction_exception_entry
 4000098:	40001d00 	call	40001d0 <alt_instruction_exception_entry>
         * instruction
         *
         * Return code was 0: Skip. The instruction after the exception is
         * already stored in 72(sp).
         */
        bne   r2, r0, .Lexception_exit
 400009c:	1000021e 	bne	r2,zero,40000a8 <alt_exception+0x88>

        /*
         * Otherwise, modify 72(sp) to re-issue the instruction that caused the
         * exception.
         */
        addi  r15, ea, -4  /* instruction that caused exception */
 40000a0:	ebffff04 	addi	r15,ea,-4
        stw   r15,  72(sp)
 40000a4:	dbc01215 	stw	r15,72(sp)
        /* 
         * Restore the saved registers, so that all general purpose registers 
         * have been restored to their state at the time the interrupt occured.
         */

        ldw   r5,  68(sp)
 40000a8:	d9401117 	ldw	r5,68(sp)
        ldw   ea,  72(sp)  /* This becomes the PC once eret is executed */
 40000ac:	df401217 	ldw	ea,72(sp)
        ldw   ra,   0(sp)
 40000b0:	dfc00017 	ldw	ra,0(sp)

        wrctl estatus, r5
 40000b4:	2801707a 	wrctl	estatus,r5

        ldw   r1,   8(sp)
 40000b8:	d8400217 	ldw	at,8(sp)
        ldw   r2,  12(sp)
 40000bc:	d8800317 	ldw	r2,12(sp)
        ldw   r3,  16(sp)
 40000c0:	d8c00417 	ldw	r3,16(sp)
        ldw   r4,  20(sp)
 40000c4:	d9000517 	ldw	r4,20(sp)
        ldw   r5,  24(sp)
 40000c8:	d9400617 	ldw	r5,24(sp)
        ldw   r6,  28(sp)
 40000cc:	d9800717 	ldw	r6,28(sp)
        ldw   r7,  32(sp)
 40000d0:	d9c00817 	ldw	r7,32(sp)

#if defined(ALT_EXCEPTION_STACK) && defined(ALT_STACK_CHECK)
        ldw   et, %gprel(alt_exception_old_stack_limit)(gp)
#endif

        ldw   r8,  36(sp)
 40000d4:	da000917 	ldw	r8,36(sp)
        ldw   r9,  40(sp)
 40000d8:	da400a17 	ldw	r9,40(sp)
        ldw   r10, 44(sp)
 40000dc:	da800b17 	ldw	r10,44(sp)
        ldw   r11, 48(sp)
 40000e0:	dac00c17 	ldw	r11,48(sp)
        ldw   r12, 52(sp)
 40000e4:	db000d17 	ldw	r12,52(sp)
        ldw   r13, 56(sp)
 40000e8:	db400e17 	ldw	r13,56(sp)
        ldw   r14, 60(sp)
 40000ec:	db800f17 	ldw	r14,60(sp)
        ldw   r15, 64(sp)
 40000f0:	dbc01017 	ldw	r15,64(sp)
        stw   et, %gprel(alt_stack_limit_value)(gp)
        stw   zero, %gprel(alt_exception_old_stack_limit)(gp)
#endif /* ALT_STACK_CHECK */
        ldw   sp,  76(sp)
#else /* ALT_EXCEPTION_STACK disabled */
        addi  sp, sp, 76
 40000f4:	dec01304 	addi	sp,sp,76

        /*
         * Return to the interrupted instruction.
         */

        eret
 40000f8:	ef80083a 	eret

040000fc <alt_irq_handler>:
 * instruction is present if the macro ALT_CI_INTERRUPT_VECTOR defined.
 */

void alt_irq_handler (void) __attribute__ ((section (".exceptions")));
void alt_irq_handler (void)
{
 40000fc:	defff904 	addi	sp,sp,-28
 4000100:	dfc00615 	stw	ra,24(sp)
 4000104:	df000515 	stw	fp,20(sp)
 4000108:	df000504 	addi	fp,sp,20
  
  /*
   * Notify the operating system that we are at interrupt level.
   */ 
  
  ALT_OS_INT_ENTER();
 400010c:	0001883a 	nop
#ifndef NIOS2_EIC_PRESENT
static ALT_INLINE alt_u32 ALT_ALWAYS_INLINE alt_irq_pending (void)
{
  alt_u32 active;

  NIOS2_READ_IPENDING (active);
 4000110:	0005313a 	rdctl	r2,ipending
 4000114:	e0bffe15 	stw	r2,-8(fp)

  return active;
 4000118:	e0bffe17 	ldw	r2,-8(fp)
   * Consider the case where the high priority interupt is asserted during
   * the interrupt entry sequence for a lower priority interrupt to see why
   * this is the case.
   */

  active = alt_irq_pending ();
 400011c:	e0bffb15 	stw	r2,-20(fp)

  do
  {
    i = 0;
 4000120:	e03ffd15 	stw	zero,-12(fp)
    mask = 1;
 4000124:	00800044 	movi	r2,1
 4000128:	e0bffc15 	stw	r2,-16(fp)
     * called to clear the interrupt condition.
     */

    do
    {
      if (active & mask)
 400012c:	e0fffb17 	ldw	r3,-20(fp)
 4000130:	e0bffc17 	ldw	r2,-16(fp)
 4000134:	1884703a 	and	r2,r3,r2
 4000138:	10001426 	beq	r2,zero,400018c <alt_irq_handler+0x90>
      { 
#ifdef ALT_ENHANCED_INTERRUPT_API_PRESENT
        alt_irq[i].handler(alt_irq[i].context); 
 400013c:	00810074 	movhi	r2,1025
 4000140:	109f9804 	addi	r2,r2,32352
 4000144:	e0fffd17 	ldw	r3,-12(fp)
 4000148:	180690fa 	slli	r3,r3,3
 400014c:	10c5883a 	add	r2,r2,r3
 4000150:	10c00017 	ldw	r3,0(r2)
 4000154:	00810074 	movhi	r2,1025
 4000158:	109f9804 	addi	r2,r2,32352
 400015c:	e13ffd17 	ldw	r4,-12(fp)
 4000160:	200890fa 	slli	r4,r4,3
 4000164:	1105883a 	add	r2,r2,r4
 4000168:	10800104 	addi	r2,r2,4
 400016c:	10800017 	ldw	r2,0(r2)
 4000170:	1009883a 	mov	r4,r2
 4000174:	183ee83a 	callr	r3
#else
        alt_irq[i].handler(alt_irq[i].context, i); 
#endif
        break;
 4000178:	0001883a 	nop
#ifndef NIOS2_EIC_PRESENT
static ALT_INLINE alt_u32 ALT_ALWAYS_INLINE alt_irq_pending (void)
{
  alt_u32 active;

  NIOS2_READ_IPENDING (active);
 400017c:	0005313a 	rdctl	r2,ipending
 4000180:	e0bfff15 	stw	r2,-4(fp)

  return active;
 4000184:	e0bfff17 	ldw	r2,-4(fp)
 4000188:	00000706 	br	40001a8 <alt_irq_handler+0xac>
      }
      mask <<= 1;
 400018c:	e0bffc17 	ldw	r2,-16(fp)
 4000190:	1085883a 	add	r2,r2,r2
 4000194:	e0bffc15 	stw	r2,-16(fp)
      i++;
 4000198:	e0bffd17 	ldw	r2,-12(fp)
 400019c:	10800044 	addi	r2,r2,1
 40001a0:	e0bffd15 	stw	r2,-12(fp)

    } while (1);
 40001a4:	003fe106 	br	400012c <__alt_mem_onchip_memory2_0+0xfbffaf6c>

    active = alt_irq_pending ();
 40001a8:	e0bffb15 	stw	r2,-20(fp)
    
  } while (active);
 40001ac:	e0bffb17 	ldw	r2,-20(fp)
 40001b0:	103fdb1e 	bne	r2,zero,4000120 <__alt_mem_onchip_memory2_0+0xfbffaf60>

  /*
   * Notify the operating system that interrupt processing is complete.
   */ 

  ALT_OS_INT_EXIT();
 40001b4:	0001883a 	nop
}
 40001b8:	0001883a 	nop
 40001bc:	e037883a 	mov	sp,fp
 40001c0:	dfc00117 	ldw	ra,4(sp)
 40001c4:	df000017 	ldw	fp,0(sp)
 40001c8:	dec00204 	addi	sp,sp,8
 40001cc:	f800283a 	ret

040001d0 <alt_instruction_exception_entry>:
 * that handler if it has been registered. Absent a handler, it will
 * break break or hang as discussed below.
 */
int 
alt_instruction_exception_entry (alt_u32 exception_pc)
{
 40001d0:	defffb04 	addi	sp,sp,-20
 40001d4:	dfc00415 	stw	ra,16(sp)
 40001d8:	df000315 	stw	fp,12(sp)
 40001dc:	df000304 	addi	fp,sp,12
 40001e0:	e13fff15 	stw	r4,-4(fp)
  cause = ( (cause & NIOS2_EXCEPTION_REG_CAUSE_MASK) >>
              NIOS2_EXCEPTION_REG_CAUSE_OFST );

  NIOS2_READ_BADADDR(badaddr);
#else
  cause = NIOS2_EXCEPTION_CAUSE_NOT_PRESENT;
 40001e4:	00bfffc4 	movi	r2,-1
 40001e8:	e0bffd15 	stw	r2,-12(fp)
  badaddr = 0;
 40001ec:	e03ffe15 	stw	zero,-8(fp)
#endif /* NIOS2_HAS_EXTRA_EXCEPTION_INFO */

  if(alt_instruction_exception_handler) {
 40001f0:	d0a7f217 	ldw	r2,-24632(gp)
 40001f4:	10000726 	beq	r2,zero,4000214 <alt_instruction_exception_entry+0x44>
     * Call handler. Its return value indicates whether the exception-causing
     * instruction should be re-issued. The code that called us,
     * alt_eceptions_entry.S, will look at this value and adjust the ea
     * register as necessary
     */
    return alt_instruction_exception_handler(cause, exception_pc, badaddr);
 40001f8:	d0a7f217 	ldw	r2,-24632(gp)
 40001fc:	e0fffd17 	ldw	r3,-12(fp)
 4000200:	e1bffe17 	ldw	r6,-8(fp)
 4000204:	e17fff17 	ldw	r5,-4(fp)
 4000208:	1809883a 	mov	r4,r3
 400020c:	103ee83a 	callr	r2
 4000210:	00000206 	br	400021c <alt_instruction_exception_entry+0x4c>
   *    (a peripheral which negates its interrupt output before its
   *    interrupt handler has been executed will cause spurious interrupts)
   */
  else {
#ifdef NIOS2_HAS_DEBUG_STUB
    NIOS2_BREAK();
 4000214:	003da03a 	break	0
      ;
#endif /* NIOS2_HAS_DEBUG_STUB */
  }

  /* We should not get here. Remove compiler warning. */
  return NIOS2_EXCEPTION_RETURN_REISSUE_INST;
 4000218:	0005883a 	mov	r2,zero
}
 400021c:	e037883a 	mov	sp,fp
 4000220:	dfc00117 	ldw	ra,4(sp)
 4000224:	df000017 	ldw	fp,0(sp)
 4000228:	dec00204 	addi	sp,sp,8
 400022c:	f800283a 	ret

Disassembly of section .text:

04000230 <_start>:

    /*
     * Now that the caches are initialized, set up the stack pointer and global pointer.
     * The values provided by the linker are assumed to be correctly aligned.
     */
    movhi sp, %hi(__alt_stack_pointer)
 4000230:	06c20034 	movhi	sp,2048
    ori sp, sp, %lo(__alt_stack_pointer)
 4000234:	dec00014 	ori	sp,sp,0
    movhi gp, %hi(_gp)
 4000238:	06810074 	movhi	gp,1025
    ori gp, gp, %lo(_gp)
 400023c:	d6b79b14 	ori	gp,gp,56940
 */
#ifndef ALT_SIM_OPTIMIZE
    /* Log that the BSS is about to be cleared. */
    ALT_LOG_PUTS(alt_log_msg_bss)

    movhi r2, %hi(__bss_start)
 4000240:	00810074 	movhi	r2,1025
    ori r2, r2, %lo(__bss_start)
 4000244:	109f8014 	ori	r2,r2,32256

    movhi r3, %hi(__bss_end)
 4000248:	00c10074 	movhi	r3,1025
    ori r3, r3, %lo(__bss_end)
 400024c:	18dfd814 	ori	r3,r3,32608

    beq r2, r3, 1f
 4000250:	10c00326 	beq	r2,r3,4000260 <_start+0x30>

0:
    stw zero, (r2)
 4000254:	10000015 	stw	zero,0(r2)
    addi r2, r2, 4
 4000258:	10800104 	addi	r2,r2,4
    bltu r2, r3, 0b
 400025c:	10fffd36 	bltu	r2,r3,4000254 <__alt_mem_onchip_memory2_0+0xfbffb094>
     * section aren't defined until alt_load() has been called).
     */
    mov   et, zero
#endif

    call alt_load
 4000260:	401162c0 	call	401162c <alt_load>

    /* Log that alt_main is about to be called. */
    ALT_LOG_PUTS(alt_log_msg_alt_main)

    /* Call the C entry point. It should never return. */
    call alt_main
 4000264:	40117c80 	call	40117c8 <alt_main>

04000268 <alt_after_alt_main>:

    /* Wait in infinite loop in case alt_main does return. */
alt_after_alt_main:
    br alt_after_alt_main
 4000268:	003fff06 	br	4000268 <__alt_mem_onchip_memory2_0+0xfbffb0a8>

0400026c <main>:
#include "text_mode_vga_color.h"
#include "palette_test.h"



int main(){
 400026c:	defffe04 	addi	sp,sp,-8
 4000270:	dfc00115 	stw	ra,4(sp)
 4000274:	df000015 	stw	fp,0(sp)
 4000278:	d839883a 	mov	fp,sp
	paletteTest();
 400027c:	400029c0 	call	400029c <paletteTest>
	//while(1){

	textVGAColorScreenSaver();
 4000280:	40007580 	call	4000758 <textVGAColorScreenSaver>
	//}
	return 0;
 4000284:	0005883a 	mov	r2,zero
}
 4000288:	e037883a 	mov	sp,fp
 400028c:	dfc00117 	ldw	ra,4(sp)
 4000290:	df000017 	ldw	fp,0(sp)
 4000294:	dec00204 	addi	sp,sp,8
 4000298:	f800283a 	ret

0400029c <paletteTest>:

#include "text_mode_vga_color.h"


void paletteTest()
{
 400029c:	defffa04 	addi	sp,sp,-24
 40002a0:	dfc00515 	stw	ra,20(sp)
 40002a4:	df000415 	stw	fp,16(sp)
 40002a8:	dc400315 	stw	r17,12(sp)
 40002ac:	dc000215 	stw	r16,8(sp)
 40002b0:	df000404 	addi	fp,sp,16
	textVGAColorClr();
 40002b4:	40004500 	call	4000450 <textVGAColorClr>
	textVGADrawColorText ("This text should cycle through random colors", 0, 0, 0, 1);
 40002b8:	00800044 	movi	r2,1
 40002bc:	d8800015 	stw	r2,0(sp)
 40002c0:	000f883a 	mov	r7,zero
 40002c4:	000d883a 	mov	r6,zero
 40002c8:	000b883a 	mov	r5,zero
 40002cc:	01010074 	movhi	r4,1025
 40002d0:	210ef604 	addi	r4,r4,15320
 40002d4:	40004a00 	call	40004a0 <textVGADrawColorText>

	for (int i = 0; i < 100; i ++)
 40002d8:	e03ffd15 	stw	zero,-12(fp)
 40002dc:	00005106 	br	4000424 <paletteTest+0x188>
	{
		usleep (20000);
 40002e0:	01138804 	movi	r4,20000
 40002e4:	4011b000 	call	4011b00 <usleep>
		setColorPalette(0, 	rand() % 16, rand() % 16,rand() % 16); //set color 0 to random color;
 40002e8:	4000c240 	call	4000c24 <rand>
 40002ec:	1007883a 	mov	r3,r2
 40002f0:	00a00034 	movhi	r2,32768
 40002f4:	108003c4 	addi	r2,r2,15
 40002f8:	1884703a 	and	r2,r3,r2
 40002fc:	1000040e 	bge	r2,zero,4000310 <paletteTest+0x74>
 4000300:	10bfffc4 	addi	r2,r2,-1
 4000304:	00fffc04 	movi	r3,-16
 4000308:	10c4b03a 	or	r2,r2,r3
 400030c:	10800044 	addi	r2,r2,1
 4000310:	14003fcc 	andi	r16,r2,255
 4000314:	4000c240 	call	4000c24 <rand>
 4000318:	1007883a 	mov	r3,r2
 400031c:	00a00034 	movhi	r2,32768
 4000320:	108003c4 	addi	r2,r2,15
 4000324:	1884703a 	and	r2,r3,r2
 4000328:	1000040e 	bge	r2,zero,400033c <paletteTest+0xa0>
 400032c:	10bfffc4 	addi	r2,r2,-1
 4000330:	00fffc04 	movi	r3,-16
 4000334:	10c4b03a 	or	r2,r2,r3
 4000338:	10800044 	addi	r2,r2,1
 400033c:	14403fcc 	andi	r17,r2,255
 4000340:	4000c240 	call	4000c24 <rand>
 4000344:	1007883a 	mov	r3,r2
 4000348:	00a00034 	movhi	r2,32768
 400034c:	108003c4 	addi	r2,r2,15
 4000350:	1884703a 	and	r2,r3,r2
 4000354:	1000040e 	bge	r2,zero,4000368 <paletteTest+0xcc>
 4000358:	10bfffc4 	addi	r2,r2,-1
 400035c:	00fffc04 	movi	r3,-16
 4000360:	10c4b03a 	or	r2,r2,r3
 4000364:	10800044 	addi	r2,r2,1
 4000368:	10803fcc 	andi	r2,r2,255
 400036c:	100f883a 	mov	r7,r2
 4000370:	880d883a 	mov	r6,r17
 4000374:	800b883a 	mov	r5,r16
 4000378:	0009883a 	mov	r4,zero
 400037c:	40005b00 	call	40005b0 <setColorPalette>
		setColorPalette(1, 	rand() % 16, rand() % 16,rand() % 16); //set color 1 to random color;
 4000380:	4000c240 	call	4000c24 <rand>
 4000384:	1007883a 	mov	r3,r2
 4000388:	00a00034 	movhi	r2,32768
 400038c:	108003c4 	addi	r2,r2,15
 4000390:	1884703a 	and	r2,r3,r2
 4000394:	1000040e 	bge	r2,zero,40003a8 <paletteTest+0x10c>
 4000398:	10bfffc4 	addi	r2,r2,-1
 400039c:	00fffc04 	movi	r3,-16
 40003a0:	10c4b03a 	or	r2,r2,r3
 40003a4:	10800044 	addi	r2,r2,1
 40003a8:	14003fcc 	andi	r16,r2,255
 40003ac:	4000c240 	call	4000c24 <rand>
 40003b0:	1007883a 	mov	r3,r2
 40003b4:	00a00034 	movhi	r2,32768
 40003b8:	108003c4 	addi	r2,r2,15
 40003bc:	1884703a 	and	r2,r3,r2
 40003c0:	1000040e 	bge	r2,zero,40003d4 <paletteTest+0x138>
 40003c4:	10bfffc4 	addi	r2,r2,-1
 40003c8:	00fffc04 	movi	r3,-16
 40003cc:	10c4b03a 	or	r2,r2,r3
 40003d0:	10800044 	addi	r2,r2,1
 40003d4:	14403fcc 	andi	r17,r2,255
 40003d8:	4000c240 	call	4000c24 <rand>
 40003dc:	1007883a 	mov	r3,r2
 40003e0:	00a00034 	movhi	r2,32768
 40003e4:	108003c4 	addi	r2,r2,15
 40003e8:	1884703a 	and	r2,r3,r2
 40003ec:	1000040e 	bge	r2,zero,4000400 <paletteTest+0x164>
 40003f0:	10bfffc4 	addi	r2,r2,-1
 40003f4:	00fffc04 	movi	r3,-16
 40003f8:	10c4b03a 	or	r2,r2,r3
 40003fc:	10800044 	addi	r2,r2,1
 4000400:	10803fcc 	andi	r2,r2,255
 4000404:	100f883a 	mov	r7,r2
 4000408:	880d883a 	mov	r6,r17
 400040c:	800b883a 	mov	r5,r16
 4000410:	01000044 	movi	r4,1
 4000414:	40005b00 	call	40005b0 <setColorPalette>
void paletteTest()
{
	textVGAColorClr();
	textVGADrawColorText ("This text should cycle through random colors", 0, 0, 0, 1);

	for (int i = 0; i < 100; i ++)
 4000418:	e0bffd17 	ldw	r2,-12(fp)
 400041c:	10800044 	addi	r2,r2,1
 4000420:	e0bffd15 	stw	r2,-12(fp)
 4000424:	e0bffd17 	ldw	r2,-12(fp)
 4000428:	10801910 	cmplti	r2,r2,100
 400042c:	103fac1e 	bne	r2,zero,40002e0 <__alt_mem_onchip_memory2_0+0xfbffb120>
		usleep (20000);
		setColorPalette(0, 	rand() % 16, rand() % 16,rand() % 16); //set color 0 to random color;
		setColorPalette(1, 	rand() % 16, rand() % 16,rand() % 16); //set color 1 to random color;
	}

}
 4000430:	0001883a 	nop
 4000434:	e6fffe04 	addi	sp,fp,-8
 4000438:	dfc00317 	ldw	ra,12(sp)
 400043c:	df000217 	ldw	fp,8(sp)
 4000440:	dc400117 	ldw	r17,4(sp)
 4000444:	dc000017 	ldw	r16,0(sp)
 4000448:	dec00404 	addi	sp,sp,16
 400044c:	f800283a 	ret

04000450 <textVGAColorClr>:
#include <alt_types.h>
#include "text_mode_vga_color.h"
#include "palette_test.h"

void textVGAColorClr()
{
 4000450:	defffe04 	addi	sp,sp,-8
 4000454:	df000115 	stw	fp,4(sp)
 4000458:	df000104 	addi	fp,sp,4
	for (int i = 0; i<(ROWS*COLUMNS) * 2; i++)
 400045c:	e03fff15 	stw	zero,-4(fp)
 4000460:	00000706 	br	4000480 <textVGAColorClr+0x30>
	{
		vga_ctrl->VRAM[i] = 0x00;
 4000464:	d0e00217 	ldw	r3,-32760(gp)
 4000468:	e0bfff17 	ldw	r2,-4(fp)
 400046c:	1885883a 	add	r2,r3,r2
 4000470:	10000005 	stb	zero,0(r2)
#include "text_mode_vga_color.h"
#include "palette_test.h"

void textVGAColorClr()
{
	for (int i = 0; i<(ROWS*COLUMNS) * 2; i++)
 4000474:	e0bfff17 	ldw	r2,-4(fp)
 4000478:	10800044 	addi	r2,r2,1
 400047c:	e0bfff15 	stw	r2,-4(fp)
 4000480:	e0bfff17 	ldw	r2,-4(fp)
 4000484:	1084b010 	cmplti	r2,r2,4800
 4000488:	103ff61e 	bne	r2,zero,4000464 <__alt_mem_onchip_memory2_0+0xfbffb2a4>
	{
		vga_ctrl->VRAM[i] = 0x00;
	}
}
 400048c:	0001883a 	nop
 4000490:	e037883a 	mov	sp,fp
 4000494:	df000017 	ldw	fp,0(sp)
 4000498:	dec00104 	addi	sp,sp,4
 400049c:	f800283a 	ret

040004a0 <textVGADrawColorText>:

void textVGADrawColorText(char* str, int x, int y, alt_u8 background, alt_u8 foreground)
{
 40004a0:	defff704 	addi	sp,sp,-36
 40004a4:	dfc00815 	stw	ra,32(sp)
 40004a8:	df000715 	stw	fp,28(sp)
 40004ac:	dc000615 	stw	r16,24(sp)
 40004b0:	df000704 	addi	fp,sp,28
 40004b4:	e13ffa15 	stw	r4,-24(fp)
 40004b8:	e17ffb15 	stw	r5,-20(fp)
 40004bc:	e1bffc15 	stw	r6,-16(fp)
 40004c0:	3807883a 	mov	r3,r7
 40004c4:	e0800217 	ldw	r2,8(fp)
 40004c8:	e0fffd05 	stb	r3,-12(fp)
 40004cc:	e0bffe05 	stb	r2,-8(fp)
	int i = 0;
 40004d0:	e03ff915 	stw	zero,-28(fp)
	while (str[i]!=0)
 40004d4:	00002706 	br	4000574 <textVGADrawColorText+0xd4>
	{
		vga_ctrl->VRAM[(y*COLUMNS + x + i) * 2] = foreground << 4 | background;
 40004d8:	d4200217 	ldw	r16,-32760(gp)
 40004dc:	01401404 	movi	r5,80
 40004e0:	e13ffc17 	ldw	r4,-16(fp)
 40004e4:	4000b780 	call	4000b78 <__mulsi3>
 40004e8:	1007883a 	mov	r3,r2
 40004ec:	e0bffb17 	ldw	r2,-20(fp)
 40004f0:	1887883a 	add	r3,r3,r2
 40004f4:	e0bff917 	ldw	r2,-28(fp)
 40004f8:	1885883a 	add	r2,r3,r2
 40004fc:	1085883a 	add	r2,r2,r2
 4000500:	1009883a 	mov	r4,r2
 4000504:	e0bffe03 	ldbu	r2,-8(fp)
 4000508:	1004913a 	slli	r2,r2,4
 400050c:	1007883a 	mov	r3,r2
 4000510:	e0bffd03 	ldbu	r2,-12(fp)
 4000514:	1884b03a 	or	r2,r3,r2
 4000518:	1007883a 	mov	r3,r2
 400051c:	8105883a 	add	r2,r16,r4
 4000520:	10c00005 	stb	r3,0(r2)
		vga_ctrl->VRAM[(y*COLUMNS + x + i) * 2 + 1] = str[i];
 4000524:	d4200217 	ldw	r16,-32760(gp)
 4000528:	01401404 	movi	r5,80
 400052c:	e13ffc17 	ldw	r4,-16(fp)
 4000530:	4000b780 	call	4000b78 <__mulsi3>
 4000534:	1007883a 	mov	r3,r2
 4000538:	e0bffb17 	ldw	r2,-20(fp)
 400053c:	1887883a 	add	r3,r3,r2
 4000540:	e0bff917 	ldw	r2,-28(fp)
 4000544:	1885883a 	add	r2,r3,r2
 4000548:	1085883a 	add	r2,r2,r2
 400054c:	10800044 	addi	r2,r2,1
 4000550:	e0fff917 	ldw	r3,-28(fp)
 4000554:	e13ffa17 	ldw	r4,-24(fp)
 4000558:	20c7883a 	add	r3,r4,r3
 400055c:	18c00003 	ldbu	r3,0(r3)
 4000560:	8085883a 	add	r2,r16,r2
 4000564:	10c00005 	stb	r3,0(r2)
		i++;
 4000568:	e0bff917 	ldw	r2,-28(fp)
 400056c:	10800044 	addi	r2,r2,1
 4000570:	e0bff915 	stw	r2,-28(fp)
}

void textVGADrawColorText(char* str, int x, int y, alt_u8 background, alt_u8 foreground)
{
	int i = 0;
	while (str[i]!=0)
 4000574:	e0bff917 	ldw	r2,-28(fp)
 4000578:	e0fffa17 	ldw	r3,-24(fp)
 400057c:	1885883a 	add	r2,r3,r2
 4000580:	10800003 	ldbu	r2,0(r2)
 4000584:	10803fcc 	andi	r2,r2,255
 4000588:	1080201c 	xori	r2,r2,128
 400058c:	10bfe004 	addi	r2,r2,-128
 4000590:	103fd11e 	bne	r2,zero,40004d8 <__alt_mem_onchip_memory2_0+0xfbffb318>
	{
		vga_ctrl->VRAM[(y*COLUMNS + x + i) * 2] = foreground << 4 | background;
		vga_ctrl->VRAM[(y*COLUMNS + x + i) * 2 + 1] = str[i];
		i++;
	}
}
 4000594:	0001883a 	nop
 4000598:	e6ffff04 	addi	sp,fp,-4
 400059c:	dfc00217 	ldw	ra,8(sp)
 40005a0:	df000117 	ldw	fp,4(sp)
 40005a4:	dc000017 	ldw	r16,0(sp)
 40005a8:	dec00304 	addi	sp,sp,12
 40005ac:	f800283a 	ret

040005b0 <setColorPalette>:

void setColorPalette (alt_u8 color, alt_u8 red, alt_u8 green, alt_u8 blue)
{
 40005b0:	defff804 	addi	sp,sp,-32
 40005b4:	dfc00715 	stw	ra,28(sp)
 40005b8:	df000615 	stw	fp,24(sp)
 40005bc:	df000604 	addi	fp,sp,24
 40005c0:	2011883a 	mov	r8,r4
 40005c4:	2809883a 	mov	r4,r5
 40005c8:	3007883a 	mov	r3,r6
 40005cc:	3805883a 	mov	r2,r7
 40005d0:	e23ffc05 	stb	r8,-16(fp)
 40005d4:	e13ffd05 	stb	r4,-12(fp)
 40005d8:	e0fffe05 	stb	r3,-8(fp)
 40005dc:	e0bfff05 	stb	r2,-4(fp)
	//fill in this function to set the color palette starting at offset 0x0000 2000 (from base)
	printf("%d \n", red);
 40005e0:	e0bffd03 	ldbu	r2,-12(fp)
 40005e4:	100b883a 	mov	r5,r2
 40005e8:	01010074 	movhi	r4,1025
 40005ec:	210f0204 	addi	r4,r4,15368
 40005f0:	4000bd00 	call	4000bd0 <printf>
	alt_u32 curColor = red << 8 |
 40005f4:	e0bffd03 	ldbu	r2,-12(fp)
 40005f8:	1006923a 	slli	r3,r2,8
					 green << 4 |
 40005fc:	e0bffe03 	ldbu	r2,-8(fp)
 4000600:	1004913a 	slli	r2,r2,4

void setColorPalette (alt_u8 color, alt_u8 red, alt_u8 green, alt_u8 blue)
{
	//fill in this function to set the color palette starting at offset 0x0000 2000 (from base)
	printf("%d \n", red);
	alt_u32 curColor = red << 8 |
 4000604:	1886b03a 	or	r3,r3,r2
					 green << 4 |
 4000608:	e0bfff03 	ldbu	r2,-4(fp)
 400060c:	1884b03a 	or	r2,r3,r2

void setColorPalette (alt_u8 color, alt_u8 red, alt_u8 green, alt_u8 blue)
{
	//fill in this function to set the color palette starting at offset 0x0000 2000 (from base)
	printf("%d \n", red);
	alt_u32 curColor = red << 8 |
 4000610:	e0bffa15 	stw	r2,-24(fp)
					 green << 4 |
					 blue;

	int idx = color / 2;
 4000614:	e0bffc03 	ldbu	r2,-16(fp)
 4000618:	1004d07a 	srli	r2,r2,1
 400061c:	10803fcc 	andi	r2,r2,255
 4000620:	e0bffb15 	stw	r2,-20(fp)

	if(color % 2){
 4000624:	e0bffc03 	ldbu	r2,-16(fp)
 4000628:	1080004c 	andi	r2,r2,1
 400062c:	10803fcc 	andi	r2,r2,255
 4000630:	10002126 	beq	r2,zero,40006b8 <setColorPalette+0x108>
		vga_ctrl->PALLETE[idx] = vga_ctrl->PALLETE[idx] & 0b00000000000000000001111111111110;
 4000634:	d1200217 	ldw	r4,-32760(gp)
 4000638:	d0e00217 	ldw	r3,-32760(gp)
 400063c:	e0bffb17 	ldw	r2,-20(fp)
 4000640:	10820004 	addi	r2,r2,2048
 4000644:	1085883a 	add	r2,r2,r2
 4000648:	1085883a 	add	r2,r2,r2
 400064c:	1885883a 	add	r2,r3,r2
 4000650:	10800017 	ldw	r2,0(r2)
 4000654:	10c7ff8c 	andi	r3,r2,8190
 4000658:	e0bffb17 	ldw	r2,-20(fp)
 400065c:	10820004 	addi	r2,r2,2048
 4000660:	1085883a 	add	r2,r2,r2
 4000664:	1085883a 	add	r2,r2,r2
 4000668:	2085883a 	add	r2,r4,r2
 400066c:	10c00015 	stw	r3,0(r2)
		vga_ctrl->PALLETE[idx] |= curColor << 13;
 4000670:	d1200217 	ldw	r4,-32760(gp)
 4000674:	d0e00217 	ldw	r3,-32760(gp)
 4000678:	e0bffb17 	ldw	r2,-20(fp)
 400067c:	10820004 	addi	r2,r2,2048
 4000680:	1085883a 	add	r2,r2,r2
 4000684:	1085883a 	add	r2,r2,r2
 4000688:	1885883a 	add	r2,r3,r2
 400068c:	10c00017 	ldw	r3,0(r2)
 4000690:	e0bffa17 	ldw	r2,-24(fp)
 4000694:	1004937a 	slli	r2,r2,13
 4000698:	1886b03a 	or	r3,r3,r2
 400069c:	e0bffb17 	ldw	r2,-20(fp)
 40006a0:	10820004 	addi	r2,r2,2048
 40006a4:	1085883a 	add	r2,r2,r2
 40006a8:	1085883a 	add	r2,r2,r2
 40006ac:	2085883a 	add	r2,r4,r2
 40006b0:	10c00015 	stw	r3,0(r2)
	}else{
		vga_ctrl->PALLETE[idx] = vga_ctrl->PALLETE[idx] & 0b00000001111111111110000000000000;
		vga_ctrl->PALLETE[idx] |= curColor << 1;
	}

}
 40006b4:	00002206 	br	4000740 <setColorPalette+0x190>

	if(color % 2){
		vga_ctrl->PALLETE[idx] = vga_ctrl->PALLETE[idx] & 0b00000000000000000001111111111110;
		vga_ctrl->PALLETE[idx] |= curColor << 13;
	}else{
		vga_ctrl->PALLETE[idx] = vga_ctrl->PALLETE[idx] & 0b00000001111111111110000000000000;
 40006b8:	d1200217 	ldw	r4,-32760(gp)
 40006bc:	d0e00217 	ldw	r3,-32760(gp)
 40006c0:	e0bffb17 	ldw	r2,-20(fp)
 40006c4:	10820004 	addi	r2,r2,2048
 40006c8:	1085883a 	add	r2,r2,r2
 40006cc:	1085883a 	add	r2,r2,r2
 40006d0:	1885883a 	add	r2,r3,r2
 40006d4:	10c00017 	ldw	r3,0(r2)
 40006d8:	00808034 	movhi	r2,512
 40006dc:	10b80004 	addi	r2,r2,-8192
 40006e0:	1886703a 	and	r3,r3,r2
 40006e4:	e0bffb17 	ldw	r2,-20(fp)
 40006e8:	10820004 	addi	r2,r2,2048
 40006ec:	1085883a 	add	r2,r2,r2
 40006f0:	1085883a 	add	r2,r2,r2
 40006f4:	2085883a 	add	r2,r4,r2
 40006f8:	10c00015 	stw	r3,0(r2)
		vga_ctrl->PALLETE[idx] |= curColor << 1;
 40006fc:	d1200217 	ldw	r4,-32760(gp)
 4000700:	d0e00217 	ldw	r3,-32760(gp)
 4000704:	e0bffb17 	ldw	r2,-20(fp)
 4000708:	10820004 	addi	r2,r2,2048
 400070c:	1085883a 	add	r2,r2,r2
 4000710:	1085883a 	add	r2,r2,r2
 4000714:	1885883a 	add	r2,r3,r2
 4000718:	10c00017 	ldw	r3,0(r2)
 400071c:	e0bffa17 	ldw	r2,-24(fp)
 4000720:	1085883a 	add	r2,r2,r2
 4000724:	1886b03a 	or	r3,r3,r2
 4000728:	e0bffb17 	ldw	r2,-20(fp)
 400072c:	10820004 	addi	r2,r2,2048
 4000730:	1085883a 	add	r2,r2,r2
 4000734:	1085883a 	add	r2,r2,r2
 4000738:	2085883a 	add	r2,r4,r2
 400073c:	10c00015 	stw	r3,0(r2)
	}

}
 4000740:	0001883a 	nop
 4000744:	e037883a 	mov	sp,fp
 4000748:	dfc00117 	ldw	ra,4(sp)
 400074c:	df000017 	ldw	fp,0(sp)
 4000750:	dec00204 	addi	sp,sp,8
 4000754:	f800283a 	ret

04000758 <textVGAColorScreenSaver>:


void textVGAColorScreenSaver()
{
 4000758:	deffe004 	addi	sp,sp,-128
 400075c:	dfc01f15 	stw	ra,124(sp)
 4000760:	df001e15 	stw	fp,120(sp)
 4000764:	dcc01d15 	stw	r19,116(sp)
 4000768:	dc801c15 	stw	r18,112(sp)
 400076c:	dc401b15 	stw	r17,108(sp)
 4000770:	dc001a15 	stw	r16,104(sp)
 4000774:	df001e04 	addi	fp,sp,120
	//This is the function you call for your week 2 demo
	char color_string[80];
    int fg, bg, x, y;
	textVGAColorClr();
 4000778:	40004500 	call	4000450 <textVGAColorClr>
	//initialize palette
	for (int i = 0; i < 16; i++)
 400077c:	e03fe515 	stw	zero,-108(fp)
 4000780:	00002806 	br	4000824 <textVGAColorScreenSaver+0xcc>
	{
		setColorPalette (i, colors[i].red, colors[i].green, colors[i].blue);
 4000784:	e0bfe517 	ldw	r2,-108(fp)
 4000788:	14403fcc 	andi	r17,r2,255
 400078c:	04010074 	movhi	r16,1025
 4000790:	84109404 	addi	r16,r16,16976
 4000794:	e0bfe517 	ldw	r2,-108(fp)
 4000798:	014005c4 	movi	r5,23
 400079c:	1009883a 	mov	r4,r2
 40007a0:	4000b780 	call	4000b78 <__mulsi3>
 40007a4:	8085883a 	add	r2,r16,r2
 40007a8:	10800504 	addi	r2,r2,20
 40007ac:	10800003 	ldbu	r2,0(r2)
 40007b0:	14803fcc 	andi	r18,r2,255
 40007b4:	04010074 	movhi	r16,1025
 40007b8:	84109404 	addi	r16,r16,16976
 40007bc:	e0bfe517 	ldw	r2,-108(fp)
 40007c0:	014005c4 	movi	r5,23
 40007c4:	1009883a 	mov	r4,r2
 40007c8:	4000b780 	call	4000b78 <__mulsi3>
 40007cc:	8085883a 	add	r2,r16,r2
 40007d0:	10800544 	addi	r2,r2,21
 40007d4:	10800003 	ldbu	r2,0(r2)
 40007d8:	14c03fcc 	andi	r19,r2,255
 40007dc:	04010074 	movhi	r16,1025
 40007e0:	84109404 	addi	r16,r16,16976
 40007e4:	e0bfe517 	ldw	r2,-108(fp)
 40007e8:	014005c4 	movi	r5,23
 40007ec:	1009883a 	mov	r4,r2
 40007f0:	4000b780 	call	4000b78 <__mulsi3>
 40007f4:	8085883a 	add	r2,r16,r2
 40007f8:	10800584 	addi	r2,r2,22
 40007fc:	10800003 	ldbu	r2,0(r2)
 4000800:	10803fcc 	andi	r2,r2,255
 4000804:	100f883a 	mov	r7,r2
 4000808:	980d883a 	mov	r6,r19
 400080c:	900b883a 	mov	r5,r18
 4000810:	8809883a 	mov	r4,r17
 4000814:	40005b00 	call	40005b0 <setColorPalette>
	//This is the function you call for your week 2 demo
	char color_string[80];
    int fg, bg, x, y;
	textVGAColorClr();
	//initialize palette
	for (int i = 0; i < 16; i++)
 4000818:	e0bfe517 	ldw	r2,-108(fp)
 400081c:	10800044 	addi	r2,r2,1
 4000820:	e0bfe515 	stw	r2,-108(fp)
 4000824:	e0bfe517 	ldw	r2,-108(fp)
 4000828:	10800410 	cmplti	r2,r2,16
 400082c:	103fd51e 	bne	r2,zero,4000784 <__alt_mem_onchip_memory2_0+0xfbffb5c4>
	{
		setColorPalette (i, colors[i].red, colors[i].green, colors[i].blue);
	}
	while (1)
	{
		fg = rand() % 16;
 4000830:	4000c240 	call	4000c24 <rand>
 4000834:	1007883a 	mov	r3,r2
 4000838:	00a00034 	movhi	r2,32768
 400083c:	108003c4 	addi	r2,r2,15
 4000840:	1884703a 	and	r2,r3,r2
 4000844:	1000040e 	bge	r2,zero,4000858 <textVGAColorScreenSaver+0x100>
 4000848:	10bfffc4 	addi	r2,r2,-1
 400084c:	00fffc04 	movi	r3,-16
 4000850:	10c4b03a 	or	r2,r2,r3
 4000854:	10800044 	addi	r2,r2,1
 4000858:	e0bfe315 	stw	r2,-116(fp)
		bg = rand() % 16;
 400085c:	4000c240 	call	4000c24 <rand>
 4000860:	1007883a 	mov	r3,r2
 4000864:	00a00034 	movhi	r2,32768
 4000868:	108003c4 	addi	r2,r2,15
 400086c:	1884703a 	and	r2,r3,r2
 4000870:	1000040e 	bge	r2,zero,4000884 <textVGAColorScreenSaver+0x12c>
 4000874:	10bfffc4 	addi	r2,r2,-1
 4000878:	00fffc04 	movi	r3,-16
 400087c:	10c4b03a 	or	r2,r2,r3
 4000880:	10800044 	addi	r2,r2,1
 4000884:	e0bfe415 	stw	r2,-112(fp)
		while (fg == bg)
 4000888:	00001606 	br	40008e4 <textVGAColorScreenSaver+0x18c>
		{
			fg = rand() % 16;
 400088c:	4000c240 	call	4000c24 <rand>
 4000890:	1007883a 	mov	r3,r2
 4000894:	00a00034 	movhi	r2,32768
 4000898:	108003c4 	addi	r2,r2,15
 400089c:	1884703a 	and	r2,r3,r2
 40008a0:	1000040e 	bge	r2,zero,40008b4 <textVGAColorScreenSaver+0x15c>
 40008a4:	10bfffc4 	addi	r2,r2,-1
 40008a8:	00fffc04 	movi	r3,-16
 40008ac:	10c4b03a 	or	r2,r2,r3
 40008b0:	10800044 	addi	r2,r2,1
 40008b4:	e0bfe315 	stw	r2,-116(fp)
			bg = rand() % 16;
 40008b8:	4000c240 	call	4000c24 <rand>
 40008bc:	1007883a 	mov	r3,r2
 40008c0:	00a00034 	movhi	r2,32768
 40008c4:	108003c4 	addi	r2,r2,15
 40008c8:	1884703a 	and	r2,r3,r2
 40008cc:	1000040e 	bge	r2,zero,40008e0 <textVGAColorScreenSaver+0x188>
 40008d0:	10bfffc4 	addi	r2,r2,-1
 40008d4:	00fffc04 	movi	r3,-16
 40008d8:	10c4b03a 	or	r2,r2,r3
 40008dc:	10800044 	addi	r2,r2,1
 40008e0:	e0bfe415 	stw	r2,-112(fp)
	}
	while (1)
	{
		fg = rand() % 16;
		bg = rand() % 16;
		while (fg == bg)
 40008e4:	e0ffe317 	ldw	r3,-116(fp)
 40008e8:	e0bfe417 	ldw	r2,-112(fp)
 40008ec:	18bfe726 	beq	r3,r2,400088c <__alt_mem_onchip_memory2_0+0xfbffb6cc>
		{
			fg = rand() % 16;
			bg = rand() % 16;
		}
		sprintf(color_string, "Drawing %s text with %s background", colors[fg].name, colors[bg].name);
 40008f0:	014005c4 	movi	r5,23
 40008f4:	e13fe317 	ldw	r4,-116(fp)
 40008f8:	4000b780 	call	4000b78 <__mulsi3>
 40008fc:	1007883a 	mov	r3,r2
 4000900:	00810074 	movhi	r2,1025
 4000904:	10909404 	addi	r2,r2,16976
 4000908:	18a1883a 	add	r16,r3,r2
 400090c:	014005c4 	movi	r5,23
 4000910:	e13fe417 	ldw	r4,-112(fp)
 4000914:	4000b780 	call	4000b78 <__mulsi3>
 4000918:	1007883a 	mov	r3,r2
 400091c:	00810074 	movhi	r2,1025
 4000920:	10909404 	addi	r2,r2,16976
 4000924:	1887883a 	add	r3,r3,r2
 4000928:	e0bfe804 	addi	r2,fp,-96
 400092c:	180f883a 	mov	r7,r3
 4000930:	800d883a 	mov	r6,r16
 4000934:	01410074 	movhi	r5,1025
 4000938:	294f0404 	addi	r5,r5,15376
 400093c:	1009883a 	mov	r4,r2
 4000940:	4000ce00 	call	4000ce0 <sprintf>
		x = rand() % (80-strlen(color_string));
 4000944:	4000c240 	call	4000c24 <rand>
 4000948:	1021883a 	mov	r16,r2
 400094c:	e0bfe804 	addi	r2,fp,-96
 4000950:	1009883a 	mov	r4,r2
 4000954:	4000d4c0 	call	4000d4c <strlen>
 4000958:	1007883a 	mov	r3,r2
 400095c:	00801404 	movi	r2,80
 4000960:	10c5c83a 	sub	r2,r2,r3
 4000964:	100b883a 	mov	r5,r2
 4000968:	8009883a 	mov	r4,r16
 400096c:	4000b200 	call	4000b20 <__umodsi3>
 4000970:	e0bfe615 	stw	r2,-104(fp)
		y = rand() % 30;
 4000974:	4000c240 	call	4000c24 <rand>
 4000978:	01400784 	movi	r5,30
 400097c:	1009883a 	mov	r4,r2
 4000980:	4000a480 	call	4000a48 <__modsi3>
 4000984:	e0bfe715 	stw	r2,-100(fp)
		textVGADrawColorText (color_string, x, y, bg, fg);
 4000988:	e0bfe417 	ldw	r2,-112(fp)
 400098c:	11003fcc 	andi	r4,r2,255
 4000990:	e0bfe317 	ldw	r2,-116(fp)
 4000994:	10803fcc 	andi	r2,r2,255
 4000998:	e0ffe804 	addi	r3,fp,-96
 400099c:	d8800015 	stw	r2,0(sp)
 40009a0:	200f883a 	mov	r7,r4
 40009a4:	e1bfe717 	ldw	r6,-100(fp)
 40009a8:	e17fe617 	ldw	r5,-104(fp)
 40009ac:	1809883a 	mov	r4,r3
 40009b0:	40004a00 	call	40004a0 <textVGADrawColorText>
		usleep (100000);
 40009b4:	010000b4 	movhi	r4,2
 40009b8:	2121a804 	addi	r4,r4,-31072
 40009bc:	4011b000 	call	4011b00 <usleep>
	}
 40009c0:	003f9b06 	br	4000830 <__alt_mem_onchip_memory2_0+0xfbffb670>

040009c4 <__divsi3>:
 40009c4:	20001b16 	blt	r4,zero,4000a34 <__divsi3+0x70>
 40009c8:	000f883a 	mov	r7,zero
 40009cc:	28001616 	blt	r5,zero,4000a28 <__divsi3+0x64>
 40009d0:	200d883a 	mov	r6,r4
 40009d4:	29001a2e 	bgeu	r5,r4,4000a40 <__divsi3+0x7c>
 40009d8:	00800804 	movi	r2,32
 40009dc:	00c00044 	movi	r3,1
 40009e0:	00000106 	br	40009e8 <__divsi3+0x24>
 40009e4:	10000d26 	beq	r2,zero,4000a1c <__divsi3+0x58>
 40009e8:	294b883a 	add	r5,r5,r5
 40009ec:	10bfffc4 	addi	r2,r2,-1
 40009f0:	18c7883a 	add	r3,r3,r3
 40009f4:	293ffb36 	bltu	r5,r4,40009e4 <__alt_mem_onchip_memory2_0+0xfbffb824>
 40009f8:	0005883a 	mov	r2,zero
 40009fc:	18000726 	beq	r3,zero,4000a1c <__divsi3+0x58>
 4000a00:	0005883a 	mov	r2,zero
 4000a04:	31400236 	bltu	r6,r5,4000a10 <__divsi3+0x4c>
 4000a08:	314dc83a 	sub	r6,r6,r5
 4000a0c:	10c4b03a 	or	r2,r2,r3
 4000a10:	1806d07a 	srli	r3,r3,1
 4000a14:	280ad07a 	srli	r5,r5,1
 4000a18:	183ffa1e 	bne	r3,zero,4000a04 <__alt_mem_onchip_memory2_0+0xfbffb844>
 4000a1c:	38000126 	beq	r7,zero,4000a24 <__divsi3+0x60>
 4000a20:	0085c83a 	sub	r2,zero,r2
 4000a24:	f800283a 	ret
 4000a28:	014bc83a 	sub	r5,zero,r5
 4000a2c:	39c0005c 	xori	r7,r7,1
 4000a30:	003fe706 	br	40009d0 <__alt_mem_onchip_memory2_0+0xfbffb810>
 4000a34:	0109c83a 	sub	r4,zero,r4
 4000a38:	01c00044 	movi	r7,1
 4000a3c:	003fe306 	br	40009cc <__alt_mem_onchip_memory2_0+0xfbffb80c>
 4000a40:	00c00044 	movi	r3,1
 4000a44:	003fee06 	br	4000a00 <__alt_mem_onchip_memory2_0+0xfbffb840>

04000a48 <__modsi3>:
 4000a48:	20001716 	blt	r4,zero,4000aa8 <__modsi3+0x60>
 4000a4c:	000f883a 	mov	r7,zero
 4000a50:	2005883a 	mov	r2,r4
 4000a54:	28001216 	blt	r5,zero,4000aa0 <__modsi3+0x58>
 4000a58:	2900162e 	bgeu	r5,r4,4000ab4 <__modsi3+0x6c>
 4000a5c:	01800804 	movi	r6,32
 4000a60:	00c00044 	movi	r3,1
 4000a64:	00000106 	br	4000a6c <__modsi3+0x24>
 4000a68:	30000a26 	beq	r6,zero,4000a94 <__modsi3+0x4c>
 4000a6c:	294b883a 	add	r5,r5,r5
 4000a70:	31bfffc4 	addi	r6,r6,-1
 4000a74:	18c7883a 	add	r3,r3,r3
 4000a78:	293ffb36 	bltu	r5,r4,4000a68 <__alt_mem_onchip_memory2_0+0xfbffb8a8>
 4000a7c:	18000526 	beq	r3,zero,4000a94 <__modsi3+0x4c>
 4000a80:	1806d07a 	srli	r3,r3,1
 4000a84:	11400136 	bltu	r2,r5,4000a8c <__modsi3+0x44>
 4000a88:	1145c83a 	sub	r2,r2,r5
 4000a8c:	280ad07a 	srli	r5,r5,1
 4000a90:	183ffb1e 	bne	r3,zero,4000a80 <__alt_mem_onchip_memory2_0+0xfbffb8c0>
 4000a94:	38000126 	beq	r7,zero,4000a9c <__modsi3+0x54>
 4000a98:	0085c83a 	sub	r2,zero,r2
 4000a9c:	f800283a 	ret
 4000aa0:	014bc83a 	sub	r5,zero,r5
 4000aa4:	003fec06 	br	4000a58 <__alt_mem_onchip_memory2_0+0xfbffb898>
 4000aa8:	0109c83a 	sub	r4,zero,r4
 4000aac:	01c00044 	movi	r7,1
 4000ab0:	003fe706 	br	4000a50 <__alt_mem_onchip_memory2_0+0xfbffb890>
 4000ab4:	00c00044 	movi	r3,1
 4000ab8:	003ff106 	br	4000a80 <__alt_mem_onchip_memory2_0+0xfbffb8c0>

04000abc <__udivsi3>:
 4000abc:	200d883a 	mov	r6,r4
 4000ac0:	2900152e 	bgeu	r5,r4,4000b18 <__udivsi3+0x5c>
 4000ac4:	28001416 	blt	r5,zero,4000b18 <__udivsi3+0x5c>
 4000ac8:	00800804 	movi	r2,32
 4000acc:	00c00044 	movi	r3,1
 4000ad0:	00000206 	br	4000adc <__udivsi3+0x20>
 4000ad4:	10000e26 	beq	r2,zero,4000b10 <__udivsi3+0x54>
 4000ad8:	28000516 	blt	r5,zero,4000af0 <__udivsi3+0x34>
 4000adc:	294b883a 	add	r5,r5,r5
 4000ae0:	10bfffc4 	addi	r2,r2,-1
 4000ae4:	18c7883a 	add	r3,r3,r3
 4000ae8:	293ffa36 	bltu	r5,r4,4000ad4 <__alt_mem_onchip_memory2_0+0xfbffb914>
 4000aec:	18000826 	beq	r3,zero,4000b10 <__udivsi3+0x54>
 4000af0:	0005883a 	mov	r2,zero
 4000af4:	31400236 	bltu	r6,r5,4000b00 <__udivsi3+0x44>
 4000af8:	314dc83a 	sub	r6,r6,r5
 4000afc:	10c4b03a 	or	r2,r2,r3
 4000b00:	1806d07a 	srli	r3,r3,1
 4000b04:	280ad07a 	srli	r5,r5,1
 4000b08:	183ffa1e 	bne	r3,zero,4000af4 <__alt_mem_onchip_memory2_0+0xfbffb934>
 4000b0c:	f800283a 	ret
 4000b10:	0005883a 	mov	r2,zero
 4000b14:	f800283a 	ret
 4000b18:	00c00044 	movi	r3,1
 4000b1c:	003ff406 	br	4000af0 <__alt_mem_onchip_memory2_0+0xfbffb930>

04000b20 <__umodsi3>:
 4000b20:	2005883a 	mov	r2,r4
 4000b24:	2900122e 	bgeu	r5,r4,4000b70 <__umodsi3+0x50>
 4000b28:	28001116 	blt	r5,zero,4000b70 <__umodsi3+0x50>
 4000b2c:	01800804 	movi	r6,32
 4000b30:	00c00044 	movi	r3,1
 4000b34:	00000206 	br	4000b40 <__umodsi3+0x20>
 4000b38:	30000c26 	beq	r6,zero,4000b6c <__umodsi3+0x4c>
 4000b3c:	28000516 	blt	r5,zero,4000b54 <__umodsi3+0x34>
 4000b40:	294b883a 	add	r5,r5,r5
 4000b44:	31bfffc4 	addi	r6,r6,-1
 4000b48:	18c7883a 	add	r3,r3,r3
 4000b4c:	293ffa36 	bltu	r5,r4,4000b38 <__alt_mem_onchip_memory2_0+0xfbffb978>
 4000b50:	18000626 	beq	r3,zero,4000b6c <__umodsi3+0x4c>
 4000b54:	1806d07a 	srli	r3,r3,1
 4000b58:	11400136 	bltu	r2,r5,4000b60 <__umodsi3+0x40>
 4000b5c:	1145c83a 	sub	r2,r2,r5
 4000b60:	280ad07a 	srli	r5,r5,1
 4000b64:	183ffb1e 	bne	r3,zero,4000b54 <__alt_mem_onchip_memory2_0+0xfbffb994>
 4000b68:	f800283a 	ret
 4000b6c:	f800283a 	ret
 4000b70:	00c00044 	movi	r3,1
 4000b74:	003ff706 	br	4000b54 <__alt_mem_onchip_memory2_0+0xfbffb994>

04000b78 <__mulsi3>:
 4000b78:	0005883a 	mov	r2,zero
 4000b7c:	20000726 	beq	r4,zero,4000b9c <__mulsi3+0x24>
 4000b80:	20c0004c 	andi	r3,r4,1
 4000b84:	2008d07a 	srli	r4,r4,1
 4000b88:	18000126 	beq	r3,zero,4000b90 <__mulsi3+0x18>
 4000b8c:	1145883a 	add	r2,r2,r5
 4000b90:	294b883a 	add	r5,r5,r5
 4000b94:	203ffa1e 	bne	r4,zero,4000b80 <__alt_mem_onchip_memory2_0+0xfbffb9c0>
 4000b98:	f800283a 	ret
 4000b9c:	f800283a 	ret

04000ba0 <_printf_r>:
 4000ba0:	defffd04 	addi	sp,sp,-12
 4000ba4:	2805883a 	mov	r2,r5
 4000ba8:	dfc00015 	stw	ra,0(sp)
 4000bac:	d9800115 	stw	r6,4(sp)
 4000bb0:	d9c00215 	stw	r7,8(sp)
 4000bb4:	21400217 	ldw	r5,8(r4)
 4000bb8:	d9c00104 	addi	r7,sp,4
 4000bbc:	100d883a 	mov	r6,r2
 4000bc0:	40030a00 	call	40030a0 <___vfprintf_internal_r>
 4000bc4:	dfc00017 	ldw	ra,0(sp)
 4000bc8:	dec00304 	addi	sp,sp,12
 4000bcc:	f800283a 	ret

04000bd0 <printf>:
 4000bd0:	defffc04 	addi	sp,sp,-16
 4000bd4:	dfc00015 	stw	ra,0(sp)
 4000bd8:	d9400115 	stw	r5,4(sp)
 4000bdc:	d9800215 	stw	r6,8(sp)
 4000be0:	d9c00315 	stw	r7,12(sp)
 4000be4:	00810074 	movhi	r2,1025
 4000be8:	10979f04 	addi	r2,r2,24188
 4000bec:	10800017 	ldw	r2,0(r2)
 4000bf0:	200b883a 	mov	r5,r4
 4000bf4:	d9800104 	addi	r6,sp,4
 4000bf8:	11000217 	ldw	r4,8(r2)
 4000bfc:	400537c0 	call	400537c <__vfprintf_internal>
 4000c00:	dfc00017 	ldw	ra,0(sp)
 4000c04:	dec00404 	addi	sp,sp,16
 4000c08:	f800283a 	ret

04000c0c <srand>:
 4000c0c:	00810074 	movhi	r2,1025
 4000c10:	10979f04 	addi	r2,r2,24188
 4000c14:	10800017 	ldw	r2,0(r2)
 4000c18:	11002915 	stw	r4,164(r2)
 4000c1c:	10002a15 	stw	zero,168(r2)
 4000c20:	f800283a 	ret

04000c24 <rand>:
 4000c24:	00810074 	movhi	r2,1025
 4000c28:	defffe04 	addi	sp,sp,-8
 4000c2c:	10979f04 	addi	r2,r2,24188
 4000c30:	dc000015 	stw	r16,0(sp)
 4000c34:	14000017 	ldw	r16,0(r2)
 4000c38:	dfc00115 	stw	ra,4(sp)
 4000c3c:	01932574 	movhi	r6,19605
 4000c40:	81002917 	ldw	r4,164(r16)
 4000c44:	81402a17 	ldw	r5,168(r16)
 4000c48:	01d614b4 	movhi	r7,22610
 4000c4c:	319fcb44 	addi	r6,r6,32557
 4000c50:	39fd0b44 	addi	r7,r7,-3027
 4000c54:	400dd380 	call	400dd38 <__muldi3>
 4000c58:	11000044 	addi	r4,r2,1
 4000c5c:	2085803a 	cmpltu	r2,r4,r2
 4000c60:	10c7883a 	add	r3,r2,r3
 4000c64:	00a00034 	movhi	r2,32768
 4000c68:	10bfffc4 	addi	r2,r2,-1
 4000c6c:	1884703a 	and	r2,r3,r2
 4000c70:	81002915 	stw	r4,164(r16)
 4000c74:	80c02a15 	stw	r3,168(r16)
 4000c78:	dfc00117 	ldw	ra,4(sp)
 4000c7c:	dc000017 	ldw	r16,0(sp)
 4000c80:	dec00204 	addi	sp,sp,8
 4000c84:	f800283a 	ret

04000c88 <_sprintf_r>:
 4000c88:	deffe404 	addi	sp,sp,-112
 4000c8c:	2807883a 	mov	r3,r5
 4000c90:	dfc01a15 	stw	ra,104(sp)
 4000c94:	d9c01b15 	stw	r7,108(sp)
 4000c98:	00a00034 	movhi	r2,32768
 4000c9c:	10bfffc4 	addi	r2,r2,-1
 4000ca0:	02008204 	movi	r8,520
 4000ca4:	d8800215 	stw	r2,8(sp)
 4000ca8:	d8800515 	stw	r2,20(sp)
 4000cac:	d9c01b04 	addi	r7,sp,108
 4000cb0:	d80b883a 	mov	r5,sp
 4000cb4:	00bfffc4 	movi	r2,-1
 4000cb8:	d8c00015 	stw	r3,0(sp)
 4000cbc:	d8c00415 	stw	r3,16(sp)
 4000cc0:	da00030d 	sth	r8,12(sp)
 4000cc4:	d880038d 	sth	r2,14(sp)
 4000cc8:	4000de40 	call	4000de4 <___svfprintf_internal_r>
 4000ccc:	d8c00017 	ldw	r3,0(sp)
 4000cd0:	18000005 	stb	zero,0(r3)
 4000cd4:	dfc01a17 	ldw	ra,104(sp)
 4000cd8:	dec01c04 	addi	sp,sp,112
 4000cdc:	f800283a 	ret

04000ce0 <sprintf>:
 4000ce0:	deffe304 	addi	sp,sp,-116
 4000ce4:	2007883a 	mov	r3,r4
 4000ce8:	dfc01a15 	stw	ra,104(sp)
 4000cec:	d9801b15 	stw	r6,108(sp)
 4000cf0:	d9c01c15 	stw	r7,112(sp)
 4000cf4:	01010074 	movhi	r4,1025
 4000cf8:	21179f04 	addi	r4,r4,24188
 4000cfc:	21000017 	ldw	r4,0(r4)
 4000d00:	00a00034 	movhi	r2,32768
 4000d04:	10bfffc4 	addi	r2,r2,-1
 4000d08:	280d883a 	mov	r6,r5
 4000d0c:	02008204 	movi	r8,520
 4000d10:	d8800215 	stw	r2,8(sp)
 4000d14:	d8800515 	stw	r2,20(sp)
 4000d18:	d9c01b04 	addi	r7,sp,108
 4000d1c:	d80b883a 	mov	r5,sp
 4000d20:	00bfffc4 	movi	r2,-1
 4000d24:	d8c00015 	stw	r3,0(sp)
 4000d28:	d8c00415 	stw	r3,16(sp)
 4000d2c:	da00030d 	sth	r8,12(sp)
 4000d30:	d880038d 	sth	r2,14(sp)
 4000d34:	4000de40 	call	4000de4 <___svfprintf_internal_r>
 4000d38:	d8c00017 	ldw	r3,0(sp)
 4000d3c:	18000005 	stb	zero,0(r3)
 4000d40:	dfc01a17 	ldw	ra,104(sp)
 4000d44:	dec01d04 	addi	sp,sp,116
 4000d48:	f800283a 	ret

04000d4c <strlen>:
 4000d4c:	208000cc 	andi	r2,r4,3
 4000d50:	10002026 	beq	r2,zero,4000dd4 <strlen+0x88>
 4000d54:	20800007 	ldb	r2,0(r4)
 4000d58:	10002026 	beq	r2,zero,4000ddc <strlen+0x90>
 4000d5c:	2005883a 	mov	r2,r4
 4000d60:	00000206 	br	4000d6c <strlen+0x20>
 4000d64:	10c00007 	ldb	r3,0(r2)
 4000d68:	18001826 	beq	r3,zero,4000dcc <strlen+0x80>
 4000d6c:	10800044 	addi	r2,r2,1
 4000d70:	10c000cc 	andi	r3,r2,3
 4000d74:	183ffb1e 	bne	r3,zero,4000d64 <__alt_mem_onchip_memory2_0+0xfbffbba4>
 4000d78:	10c00017 	ldw	r3,0(r2)
 4000d7c:	01ffbff4 	movhi	r7,65279
 4000d80:	39ffbfc4 	addi	r7,r7,-257
 4000d84:	00ca303a 	nor	r5,zero,r3
 4000d88:	01a02074 	movhi	r6,32897
 4000d8c:	19c7883a 	add	r3,r3,r7
 4000d90:	31a02004 	addi	r6,r6,-32640
 4000d94:	1946703a 	and	r3,r3,r5
 4000d98:	1986703a 	and	r3,r3,r6
 4000d9c:	1800091e 	bne	r3,zero,4000dc4 <strlen+0x78>
 4000da0:	10800104 	addi	r2,r2,4
 4000da4:	10c00017 	ldw	r3,0(r2)
 4000da8:	19cb883a 	add	r5,r3,r7
 4000dac:	00c6303a 	nor	r3,zero,r3
 4000db0:	28c6703a 	and	r3,r5,r3
 4000db4:	1986703a 	and	r3,r3,r6
 4000db8:	183ff926 	beq	r3,zero,4000da0 <__alt_mem_onchip_memory2_0+0xfbffbbe0>
 4000dbc:	00000106 	br	4000dc4 <strlen+0x78>
 4000dc0:	10800044 	addi	r2,r2,1
 4000dc4:	10c00007 	ldb	r3,0(r2)
 4000dc8:	183ffd1e 	bne	r3,zero,4000dc0 <__alt_mem_onchip_memory2_0+0xfbffbc00>
 4000dcc:	1105c83a 	sub	r2,r2,r4
 4000dd0:	f800283a 	ret
 4000dd4:	2005883a 	mov	r2,r4
 4000dd8:	003fe706 	br	4000d78 <__alt_mem_onchip_memory2_0+0xfbffbbb8>
 4000ddc:	0005883a 	mov	r2,zero
 4000de0:	f800283a 	ret

04000de4 <___svfprintf_internal_r>:
 4000de4:	deffb704 	addi	sp,sp,-292
 4000de8:	dfc04815 	stw	ra,288(sp)
 4000dec:	ddc04615 	stw	r23,280(sp)
 4000df0:	d9402d15 	stw	r5,180(sp)
 4000df4:	d9003915 	stw	r4,228(sp)
 4000df8:	302f883a 	mov	r23,r6
 4000dfc:	d9c02e15 	stw	r7,184(sp)
 4000e00:	df004715 	stw	fp,284(sp)
 4000e04:	dd804515 	stw	r22,276(sp)
 4000e08:	dd404415 	stw	r21,272(sp)
 4000e0c:	dd004315 	stw	r20,268(sp)
 4000e10:	dcc04215 	stw	r19,264(sp)
 4000e14:	dc804115 	stw	r18,260(sp)
 4000e18:	dc404015 	stw	r17,256(sp)
 4000e1c:	dc003f15 	stw	r16,252(sp)
 4000e20:	4007b180 	call	4007b18 <_localeconv_r>
 4000e24:	10800017 	ldw	r2,0(r2)
 4000e28:	1009883a 	mov	r4,r2
 4000e2c:	d8803415 	stw	r2,208(sp)
 4000e30:	4000d4c0 	call	4000d4c <strlen>
 4000e34:	d8c02d17 	ldw	r3,180(sp)
 4000e38:	d8803815 	stw	r2,224(sp)
 4000e3c:	1880030b 	ldhu	r2,12(r3)
 4000e40:	1080200c 	andi	r2,r2,128
 4000e44:	10000226 	beq	r2,zero,4000e50 <___svfprintf_internal_r+0x6c>
 4000e48:	18800417 	ldw	r2,16(r3)
 4000e4c:	1006b126 	beq	r2,zero,4002914 <___svfprintf_internal_r+0x1b30>
 4000e50:	dcc03917 	ldw	r19,228(sp)
 4000e54:	d8c00404 	addi	r3,sp,16
 4000e58:	05410074 	movhi	r21,1025
 4000e5c:	d9001e04 	addi	r4,sp,120
 4000e60:	ad4f1d84 	addi	r21,r21,15478
 4000e64:	d8c01e15 	stw	r3,120(sp)
 4000e68:	d8002015 	stw	zero,128(sp)
 4000e6c:	d8001f15 	stw	zero,124(sp)
 4000e70:	d8003315 	stw	zero,204(sp)
 4000e74:	d8003615 	stw	zero,216(sp)
 4000e78:	d8003715 	stw	zero,220(sp)
 4000e7c:	1811883a 	mov	r8,r3
 4000e80:	d8003a15 	stw	zero,232(sp)
 4000e84:	d8003b15 	stw	zero,236(sp)
 4000e88:	d8002f15 	stw	zero,188(sp)
 4000e8c:	d9002815 	stw	r4,160(sp)
 4000e90:	b8800007 	ldb	r2,0(r23)
 4000e94:	10027726 	beq	r2,zero,4001874 <___svfprintf_internal_r+0xa90>
 4000e98:	00c00944 	movi	r3,37
 4000e9c:	b823883a 	mov	r17,r23
 4000ea0:	10c0021e 	bne	r2,r3,4000eac <___svfprintf_internal_r+0xc8>
 4000ea4:	00001406 	br	4000ef8 <___svfprintf_internal_r+0x114>
 4000ea8:	10c00326 	beq	r2,r3,4000eb8 <___svfprintf_internal_r+0xd4>
 4000eac:	8c400044 	addi	r17,r17,1
 4000eb0:	88800007 	ldb	r2,0(r17)
 4000eb4:	103ffc1e 	bne	r2,zero,4000ea8 <__alt_mem_onchip_memory2_0+0xfbffbce8>
 4000eb8:	8de1c83a 	sub	r16,r17,r23
 4000ebc:	80000e26 	beq	r16,zero,4000ef8 <___svfprintf_internal_r+0x114>
 4000ec0:	d8c02017 	ldw	r3,128(sp)
 4000ec4:	d8801f17 	ldw	r2,124(sp)
 4000ec8:	45c00015 	stw	r23,0(r8)
 4000ecc:	1c07883a 	add	r3,r3,r16
 4000ed0:	10800044 	addi	r2,r2,1
 4000ed4:	d8c02015 	stw	r3,128(sp)
 4000ed8:	44000115 	stw	r16,4(r8)
 4000edc:	d8801f15 	stw	r2,124(sp)
 4000ee0:	00c001c4 	movi	r3,7
 4000ee4:	18809916 	blt	r3,r2,400114c <___svfprintf_internal_r+0x368>
 4000ee8:	42000204 	addi	r8,r8,8
 4000eec:	d9402f17 	ldw	r5,188(sp)
 4000ef0:	2c0b883a 	add	r5,r5,r16
 4000ef4:	d9402f15 	stw	r5,188(sp)
 4000ef8:	88800007 	ldb	r2,0(r17)
 4000efc:	10009a26 	beq	r2,zero,4001168 <___svfprintf_internal_r+0x384>
 4000f00:	8dc00044 	addi	r23,r17,1
 4000f04:	8c400047 	ldb	r17,1(r17)
 4000f08:	0021883a 	mov	r16,zero
 4000f0c:	00bfffc4 	movi	r2,-1
 4000f10:	0025883a 	mov	r18,zero
 4000f14:	dc002905 	stb	r16,164(sp)
 4000f18:	d8002785 	stb	zero,158(sp)
 4000f1c:	d8002b05 	stb	zero,172(sp)
 4000f20:	d8802a15 	stw	r2,168(sp)
 4000f24:	d8003115 	stw	zero,196(sp)
 4000f28:	05001604 	movi	r20,88
 4000f2c:	05800244 	movi	r22,9
 4000f30:	4039883a 	mov	fp,r8
 4000f34:	9021883a 	mov	r16,r18
 4000f38:	bdc00044 	addi	r23,r23,1
 4000f3c:	88bff804 	addi	r2,r17,-32
 4000f40:	a0831e36 	bltu	r20,r2,4001bbc <___svfprintf_internal_r+0xdd8>
 4000f44:	100490ba 	slli	r2,r2,2
 4000f48:	00c10034 	movhi	r3,1024
 4000f4c:	18c3d704 	addi	r3,r3,3932
 4000f50:	10c5883a 	add	r2,r2,r3
 4000f54:	10800017 	ldw	r2,0(r2)
 4000f58:	1000683a 	jmp	r2
 4000f5c:	04001b04 	movi	r16,108
 4000f60:	04001bbc 	xorhi	r16,zero,110
 4000f64:	04001bbc 	xorhi	r16,zero,110
 4000f68:	04001af8 	rdprs	r16,zero,107
 4000f6c:	04001bbc 	xorhi	r16,zero,110
 4000f70:	04001bbc 	xorhi	r16,zero,110
 4000f74:	04001bbc 	xorhi	r16,zero,110
 4000f78:	04001bbc 	xorhi	r16,zero,110
 4000f7c:	04001bbc 	xorhi	r16,zero,110
 4000f80:	04001bbc 	xorhi	r16,zero,110
 4000f84:	040011c4 	movi	r16,71
 4000f88:	04001a08 	cmpgei	r16,zero,104
 4000f8c:	04001bbc 	xorhi	r16,zero,110
 4000f90:	040010d0 	cmplti	r16,zero,67
 4000f94:	040011e8 	cmpgeui	r16,zero,71
 4000f98:	04001bbc 	xorhi	r16,zero,110
 4000f9c:	04001274 	movhi	r16,73
 4000fa0:	04001238 	rdprs	r16,zero,72
 4000fa4:	04001238 	rdprs	r16,zero,72
 4000fa8:	04001238 	rdprs	r16,zero,72
 4000fac:	04001238 	rdprs	r16,zero,72
 4000fb0:	04001238 	rdprs	r16,zero,72
 4000fb4:	04001238 	rdprs	r16,zero,72
 4000fb8:	04001238 	rdprs	r16,zero,72
 4000fbc:	04001238 	rdprs	r16,zero,72
 4000fc0:	04001238 	rdprs	r16,zero,72
 4000fc4:	04001bbc 	xorhi	r16,zero,110
 4000fc8:	04001bbc 	xorhi	r16,zero,110
 4000fcc:	04001bbc 	xorhi	r16,zero,110
 4000fd0:	04001bbc 	xorhi	r16,zero,110
 4000fd4:	04001bbc 	xorhi	r16,zero,110
 4000fd8:	04001bbc 	xorhi	r16,zero,110
 4000fdc:	04001bbc 	xorhi	r16,zero,110
 4000fe0:	04001bbc 	xorhi	r16,zero,110
 4000fe4:	04001bbc 	xorhi	r16,zero,110
 4000fe8:	04001bbc 	xorhi	r16,zero,110
 4000fec:	04001338 	rdprs	r16,zero,76
 4000ff0:	04001280 	call	400128 <__alt_mem_sdram-0x3bffed8>
 4000ff4:	04001bbc 	xorhi	r16,zero,110
 4000ff8:	04001280 	call	400128 <__alt_mem_sdram-0x3bffed8>
 4000ffc:	04001bbc 	xorhi	r16,zero,110
 4001000:	04001bbc 	xorhi	r16,zero,110
 4001004:	04001bbc 	xorhi	r16,zero,110
 4001008:	04001bbc 	xorhi	r16,zero,110
 400100c:	0400132c 	andhi	r16,zero,76
 4001010:	04001bbc 	xorhi	r16,zero,110
 4001014:	04001bbc 	xorhi	r16,zero,110
 4001018:	04001400 	call	400140 <__alt_mem_sdram-0x3bffec0>
 400101c:	04001bbc 	xorhi	r16,zero,110
 4001020:	04001bbc 	xorhi	r16,zero,110
 4001024:	04001bbc 	xorhi	r16,zero,110
 4001028:	04001bbc 	xorhi	r16,zero,110
 400102c:	04001bbc 	xorhi	r16,zero,110
 4001030:	0400187c 	xorhi	r16,zero,97
 4001034:	04001bbc 	xorhi	r16,zero,110
 4001038:	04001bbc 	xorhi	r16,zero,110
 400103c:	040018e8 	cmpgeui	r16,zero,99
 4001040:	04001bbc 	xorhi	r16,zero,110
 4001044:	04001bbc 	xorhi	r16,zero,110
 4001048:	04001bbc 	xorhi	r16,zero,110
 400104c:	04001bbc 	xorhi	r16,zero,110
 4001050:	04001bbc 	xorhi	r16,zero,110
 4001054:	04001bbc 	xorhi	r16,zero,110
 4001058:	04001bbc 	xorhi	r16,zero,110
 400105c:	04001bbc 	xorhi	r16,zero,110
 4001060:	04001bbc 	xorhi	r16,zero,110
 4001064:	04001bbc 	xorhi	r16,zero,110
 4001068:	040019a4 	muli	r16,zero,102
 400106c:	04001b24 	muli	r16,zero,108
 4001070:	04001280 	call	400128 <__alt_mem_sdram-0x3bffed8>
 4001074:	04001280 	call	400128 <__alt_mem_sdram-0x3bffed8>
 4001078:	04001280 	call	400128 <__alt_mem_sdram-0x3bffed8>
 400107c:	04001b98 	cmpnei	r16,zero,110
 4001080:	04001b24 	muli	r16,zero,108
 4001084:	04001bbc 	xorhi	r16,zero,110
 4001088:	04001bbc 	xorhi	r16,zero,110
 400108c:	04001b44 	movi	r16,109
 4001090:	04001bbc 	xorhi	r16,zero,110
 4001094:	04001b58 	cmpnei	r16,zero,109
 4001098:	040019e8 	cmpgeui	r16,zero,103
 400109c:	040010dc 	xori	r16,zero,67
 40010a0:	04001a20 	cmpeqi	r16,zero,104
 40010a4:	04001bbc 	xorhi	r16,zero,110
 40010a8:	04001a2c 	andhi	r16,zero,104
 40010ac:	04001bbc 	xorhi	r16,zero,110
 40010b0:	04001a90 	cmplti	r16,zero,106
 40010b4:	04001bbc 	xorhi	r16,zero,110
 40010b8:	04001bbc 	xorhi	r16,zero,110
 40010bc:	04001ab0 	cmpltui	r16,zero,106
 40010c0:	d8c03117 	ldw	r3,196(sp)
 40010c4:	d8802e15 	stw	r2,184(sp)
 40010c8:	00c7c83a 	sub	r3,zero,r3
 40010cc:	d8c03115 	stw	r3,196(sp)
 40010d0:	84000114 	ori	r16,r16,4
 40010d4:	bc400007 	ldb	r17,0(r23)
 40010d8:	003f9706 	br	4000f38 <__alt_mem_onchip_memory2_0+0xfbffbd78>
 40010dc:	00800c04 	movi	r2,48
 40010e0:	d8802705 	stb	r2,156(sp)
 40010e4:	00801e04 	movi	r2,120
 40010e8:	d8802745 	stb	r2,157(sp)
 40010ec:	d9002a17 	ldw	r4,168(sp)
 40010f0:	d8802e17 	ldw	r2,184(sp)
 40010f4:	d8002785 	stb	zero,158(sp)
 40010f8:	e011883a 	mov	r8,fp
 40010fc:	10c00104 	addi	r3,r2,4
 4001100:	15000017 	ldw	r20,0(r2)
 4001104:	002d883a 	mov	r22,zero
 4001108:	80800094 	ori	r2,r16,2
 400110c:	2002b616 	blt	r4,zero,4001be8 <___svfprintf_internal_r+0xe04>
 4001110:	00bfdfc4 	movi	r2,-129
 4001114:	80a4703a 	and	r18,r16,r2
 4001118:	d8c02e15 	stw	r3,184(sp)
 400111c:	94800094 	ori	r18,r18,2
 4001120:	a002a01e 	bne	r20,zero,4001ba4 <___svfprintf_internal_r+0xdc0>
 4001124:	01410074 	movhi	r5,1025
 4001128:	294f1604 	addi	r5,r5,15448
 400112c:	d9403a15 	stw	r5,232(sp)
 4001130:	04401e04 	movi	r17,120
 4001134:	d8c02a17 	ldw	r3,168(sp)
 4001138:	0039883a 	mov	fp,zero
 400113c:	1801e626 	beq	r3,zero,40018d8 <___svfprintf_internal_r+0xaf4>
 4001140:	0029883a 	mov	r20,zero
 4001144:	002d883a 	mov	r22,zero
 4001148:	00020506 	br	4001960 <___svfprintf_internal_r+0xb7c>
 400114c:	d9402d17 	ldw	r5,180(sp)
 4001150:	d9801e04 	addi	r6,sp,120
 4001154:	9809883a 	mov	r4,r19
 4001158:	4009bfc0 	call	4009bfc <__ssprint_r>
 400115c:	1000081e 	bne	r2,zero,4001180 <___svfprintf_internal_r+0x39c>
 4001160:	da000404 	addi	r8,sp,16
 4001164:	003f6106 	br	4000eec <__alt_mem_onchip_memory2_0+0xfbffbd2c>
 4001168:	d8802017 	ldw	r2,128(sp)
 400116c:	10000426 	beq	r2,zero,4001180 <___svfprintf_internal_r+0x39c>
 4001170:	d9402d17 	ldw	r5,180(sp)
 4001174:	d9003917 	ldw	r4,228(sp)
 4001178:	d9801e04 	addi	r6,sp,120
 400117c:	4009bfc0 	call	4009bfc <__ssprint_r>
 4001180:	d8802d17 	ldw	r2,180(sp)
 4001184:	10c0030b 	ldhu	r3,12(r2)
 4001188:	d8802f17 	ldw	r2,188(sp)
 400118c:	18c0100c 	andi	r3,r3,64
 4001190:	1806251e 	bne	r3,zero,4002a28 <___svfprintf_internal_r+0x1c44>
 4001194:	dfc04817 	ldw	ra,288(sp)
 4001198:	df004717 	ldw	fp,284(sp)
 400119c:	ddc04617 	ldw	r23,280(sp)
 40011a0:	dd804517 	ldw	r22,276(sp)
 40011a4:	dd404417 	ldw	r21,272(sp)
 40011a8:	dd004317 	ldw	r20,268(sp)
 40011ac:	dcc04217 	ldw	r19,264(sp)
 40011b0:	dc804117 	ldw	r18,260(sp)
 40011b4:	dc404017 	ldw	r17,256(sp)
 40011b8:	dc003f17 	ldw	r16,252(sp)
 40011bc:	dec04904 	addi	sp,sp,292
 40011c0:	f800283a 	ret
 40011c4:	d9002e17 	ldw	r4,184(sp)
 40011c8:	d9402e17 	ldw	r5,184(sp)
 40011cc:	21000017 	ldw	r4,0(r4)
 40011d0:	28800104 	addi	r2,r5,4
 40011d4:	d9003115 	stw	r4,196(sp)
 40011d8:	203fb916 	blt	r4,zero,40010c0 <__alt_mem_onchip_memory2_0+0xfbffbf00>
 40011dc:	d8802e15 	stw	r2,184(sp)
 40011e0:	bc400007 	ldb	r17,0(r23)
 40011e4:	003f5406 	br	4000f38 <__alt_mem_onchip_memory2_0+0xfbffbd78>
 40011e8:	bc400007 	ldb	r17,0(r23)
 40011ec:	01000a84 	movi	r4,42
 40011f0:	b8c00044 	addi	r3,r23,1
 40011f4:	89076926 	beq	r17,r4,4002f9c <___svfprintf_internal_r+0x21b8>
 40011f8:	8cbff404 	addi	r18,r17,-48
 40011fc:	b486b936 	bltu	r22,r18,4002ce4 <___svfprintf_internal_r+0x1f00>
 4001200:	0009883a 	mov	r4,zero
 4001204:	1823883a 	mov	r17,r3
 4001208:	01400284 	movi	r5,10
 400120c:	4000b780 	call	4000b78 <__mulsi3>
 4001210:	88c00007 	ldb	r3,0(r17)
 4001214:	1489883a 	add	r4,r2,r18
 4001218:	8dc00044 	addi	r23,r17,1
 400121c:	1cbff404 	addi	r18,r3,-48
 4001220:	b823883a 	mov	r17,r23
 4001224:	b4bff82e 	bgeu	r22,r18,4001208 <__alt_mem_onchip_memory2_0+0xfbffc048>
 4001228:	1823883a 	mov	r17,r3
 400122c:	20060416 	blt	r4,zero,4002a40 <___svfprintf_internal_r+0x1c5c>
 4001230:	d9002a15 	stw	r4,168(sp)
 4001234:	003f4106 	br	4000f3c <__alt_mem_onchip_memory2_0+0xfbffbd7c>
 4001238:	8cbff404 	addi	r18,r17,-48
 400123c:	d8003115 	stw	zero,196(sp)
 4001240:	0009883a 	mov	r4,zero
 4001244:	b823883a 	mov	r17,r23
 4001248:	01400284 	movi	r5,10
 400124c:	4000b780 	call	4000b78 <__mulsi3>
 4001250:	88c00007 	ldb	r3,0(r17)
 4001254:	9089883a 	add	r4,r18,r2
 4001258:	bdc00044 	addi	r23,r23,1
 400125c:	1cbff404 	addi	r18,r3,-48
 4001260:	b823883a 	mov	r17,r23
 4001264:	b4bff82e 	bgeu	r22,r18,4001248 <__alt_mem_onchip_memory2_0+0xfbffc088>
 4001268:	1823883a 	mov	r17,r3
 400126c:	d9003115 	stw	r4,196(sp)
 4001270:	003f3206 	br	4000f3c <__alt_mem_onchip_memory2_0+0xfbffbd7c>
 4001274:	84002014 	ori	r16,r16,128
 4001278:	bc400007 	ldb	r17,0(r23)
 400127c:	003f2e06 	br	4000f38 <__alt_mem_onchip_memory2_0+0xfbffbd78>
 4001280:	8025883a 	mov	r18,r16
 4001284:	dc002903 	ldbu	r16,164(sp)
 4001288:	e011883a 	mov	r8,fp
 400128c:	84003fcc 	andi	r16,r16,255
 4001290:	8007721e 	bne	r16,zero,400305c <___svfprintf_internal_r+0x2278>
 4001294:	9080020c 	andi	r2,r18,8
 4001298:	1004a526 	beq	r2,zero,4002530 <___svfprintf_internal_r+0x174c>
 400129c:	d9002e17 	ldw	r4,184(sp)
 40012a0:	d9402e17 	ldw	r5,184(sp)
 40012a4:	d8802e17 	ldw	r2,184(sp)
 40012a8:	21000017 	ldw	r4,0(r4)
 40012ac:	29400117 	ldw	r5,4(r5)
 40012b0:	10800204 	addi	r2,r2,8
 40012b4:	d9003615 	stw	r4,216(sp)
 40012b8:	d9403715 	stw	r5,220(sp)
 40012bc:	d8802e15 	stw	r2,184(sp)
 40012c0:	d9003617 	ldw	r4,216(sp)
 40012c4:	d9403717 	ldw	r5,220(sp)
 40012c8:	da003e15 	stw	r8,248(sp)
 40012cc:	04000044 	movi	r16,1
 40012d0:	400991c0 	call	400991c <__fpclassifyd>
 40012d4:	da003e17 	ldw	r8,248(sp)
 40012d8:	1404731e 	bne	r2,r16,40024a8 <___svfprintf_internal_r+0x16c4>
 40012dc:	d9003617 	ldw	r4,216(sp)
 40012e0:	d9403717 	ldw	r5,220(sp)
 40012e4:	000d883a 	mov	r6,zero
 40012e8:	000f883a 	mov	r7,zero
 40012ec:	400fde40 	call	400fde4 <__ledf2>
 40012f0:	da003e17 	ldw	r8,248(sp)
 40012f4:	10061b16 	blt	r2,zero,4002b64 <___svfprintf_internal_r+0x1d80>
 40012f8:	df002783 	ldbu	fp,158(sp)
 40012fc:	008011c4 	movi	r2,71
 4001300:	1445810e 	bge	r2,r17,4002908 <___svfprintf_internal_r+0x1b24>
 4001304:	04010074 	movhi	r16,1025
 4001308:	840f0e04 	addi	r16,r16,15416
 400130c:	00c000c4 	movi	r3,3
 4001310:	00bfdfc4 	movi	r2,-129
 4001314:	d8c02915 	stw	r3,164(sp)
 4001318:	90a4703a 	and	r18,r18,r2
 400131c:	d8c02b15 	stw	r3,172(sp)
 4001320:	d8002a15 	stw	zero,168(sp)
 4001324:	d8003215 	stw	zero,200(sp)
 4001328:	00006c06 	br	40014dc <___svfprintf_internal_r+0x6f8>
 400132c:	84000214 	ori	r16,r16,8
 4001330:	bc400007 	ldb	r17,0(r23)
 4001334:	003f0006 	br	4000f38 <__alt_mem_onchip_memory2_0+0xfbffbd78>
 4001338:	8025883a 	mov	r18,r16
 400133c:	dc002903 	ldbu	r16,164(sp)
 4001340:	e011883a 	mov	r8,fp
 4001344:	84003fcc 	andi	r16,r16,255
 4001348:	80073f1e 	bne	r16,zero,4003048 <___svfprintf_internal_r+0x2264>
 400134c:	94800414 	ori	r18,r18,16
 4001350:	9080080c 	andi	r2,r18,32
 4001354:	1003bb26 	beq	r2,zero,4002244 <___svfprintf_internal_r+0x1460>
 4001358:	d9002e17 	ldw	r4,184(sp)
 400135c:	20800117 	ldw	r2,4(r4)
 4001360:	25000017 	ldw	r20,0(r4)
 4001364:	21000204 	addi	r4,r4,8
 4001368:	d9002e15 	stw	r4,184(sp)
 400136c:	102d883a 	mov	r22,r2
 4001370:	1003bd16 	blt	r2,zero,4002268 <___svfprintf_internal_r+0x1484>
 4001374:	d9002a17 	ldw	r4,168(sp)
 4001378:	df002783 	ldbu	fp,158(sp)
 400137c:	2003d016 	blt	r4,zero,40022c0 <___svfprintf_internal_r+0x14dc>
 4001380:	00ffdfc4 	movi	r3,-129
 4001384:	a584b03a 	or	r2,r20,r22
 4001388:	90e4703a 	and	r18,r18,r3
 400138c:	10015026 	beq	r2,zero,40018d0 <___svfprintf_internal_r+0xaec>
 4001390:	b0037026 	beq	r22,zero,4002154 <___svfprintf_internal_r+0x1370>
 4001394:	dc402915 	stw	r17,164(sp)
 4001398:	dc001e04 	addi	r16,sp,120
 400139c:	b023883a 	mov	r17,r22
 40013a0:	402d883a 	mov	r22,r8
 40013a4:	a009883a 	mov	r4,r20
 40013a8:	880b883a 	mov	r5,r17
 40013ac:	01800284 	movi	r6,10
 40013b0:	000f883a 	mov	r7,zero
 40013b4:	400e4400 	call	400e440 <__umoddi3>
 40013b8:	10800c04 	addi	r2,r2,48
 40013bc:	843fffc4 	addi	r16,r16,-1
 40013c0:	a009883a 	mov	r4,r20
 40013c4:	880b883a 	mov	r5,r17
 40013c8:	80800005 	stb	r2,0(r16)
 40013cc:	01800284 	movi	r6,10
 40013d0:	000f883a 	mov	r7,zero
 40013d4:	400de440 	call	400de44 <__udivdi3>
 40013d8:	1029883a 	mov	r20,r2
 40013dc:	10c4b03a 	or	r2,r2,r3
 40013e0:	1823883a 	mov	r17,r3
 40013e4:	103fef1e 	bne	r2,zero,40013a4 <__alt_mem_onchip_memory2_0+0xfbffc1e4>
 40013e8:	d8c02817 	ldw	r3,160(sp)
 40013ec:	dc402917 	ldw	r17,164(sp)
 40013f0:	b011883a 	mov	r8,r22
 40013f4:	1c07c83a 	sub	r3,r3,r16
 40013f8:	d8c02b15 	stw	r3,172(sp)
 40013fc:	00003106 	br	40014c4 <___svfprintf_internal_r+0x6e0>
 4001400:	8025883a 	mov	r18,r16
 4001404:	dc002903 	ldbu	r16,164(sp)
 4001408:	e011883a 	mov	r8,fp
 400140c:	84003fcc 	andi	r16,r16,255
 4001410:	80070a1e 	bne	r16,zero,400303c <___svfprintf_internal_r+0x2258>
 4001414:	94800414 	ori	r18,r18,16
 4001418:	9080080c 	andi	r2,r18,32
 400141c:	1002f626 	beq	r2,zero,4001ff8 <___svfprintf_internal_r+0x1214>
 4001420:	d9002e17 	ldw	r4,184(sp)
 4001424:	d9402a17 	ldw	r5,168(sp)
 4001428:	d8002785 	stb	zero,158(sp)
 400142c:	20800204 	addi	r2,r4,8
 4001430:	25000017 	ldw	r20,0(r4)
 4001434:	25800117 	ldw	r22,4(r4)
 4001438:	28043716 	blt	r5,zero,4002518 <___svfprintf_internal_r+0x1734>
 400143c:	013fdfc4 	movi	r4,-129
 4001440:	a586b03a 	or	r3,r20,r22
 4001444:	d8802e15 	stw	r2,184(sp)
 4001448:	9124703a 	and	r18,r18,r4
 400144c:	1802f71e 	bne	r3,zero,400202c <___svfprintf_internal_r+0x1248>
 4001450:	d9402a17 	ldw	r5,168(sp)
 4001454:	0039883a 	mov	fp,zero
 4001458:	2806df26 	beq	r5,zero,4002fd8 <___svfprintf_internal_r+0x21f4>
 400145c:	0029883a 	mov	r20,zero
 4001460:	002d883a 	mov	r22,zero
 4001464:	dc001e04 	addi	r16,sp,120
 4001468:	a006d0fa 	srli	r3,r20,3
 400146c:	b008977a 	slli	r4,r22,29
 4001470:	b02cd0fa 	srli	r22,r22,3
 4001474:	a50001cc 	andi	r20,r20,7
 4001478:	a0800c04 	addi	r2,r20,48
 400147c:	843fffc4 	addi	r16,r16,-1
 4001480:	20e8b03a 	or	r20,r4,r3
 4001484:	80800005 	stb	r2,0(r16)
 4001488:	a586b03a 	or	r3,r20,r22
 400148c:	183ff61e 	bne	r3,zero,4001468 <__alt_mem_onchip_memory2_0+0xfbffc2a8>
 4001490:	90c0004c 	andi	r3,r18,1
 4001494:	18013f26 	beq	r3,zero,4001994 <___svfprintf_internal_r+0xbb0>
 4001498:	10803fcc 	andi	r2,r2,255
 400149c:	1080201c 	xori	r2,r2,128
 40014a0:	10bfe004 	addi	r2,r2,-128
 40014a4:	00c00c04 	movi	r3,48
 40014a8:	10c13a26 	beq	r2,r3,4001994 <___svfprintf_internal_r+0xbb0>
 40014ac:	80ffffc5 	stb	r3,-1(r16)
 40014b0:	d8c02817 	ldw	r3,160(sp)
 40014b4:	80bfffc4 	addi	r2,r16,-1
 40014b8:	1021883a 	mov	r16,r2
 40014bc:	1887c83a 	sub	r3,r3,r2
 40014c0:	d8c02b15 	stw	r3,172(sp)
 40014c4:	d8802b17 	ldw	r2,172(sp)
 40014c8:	d9002a17 	ldw	r4,168(sp)
 40014cc:	1100010e 	bge	r2,r4,40014d4 <___svfprintf_internal_r+0x6f0>
 40014d0:	2005883a 	mov	r2,r4
 40014d4:	d8802915 	stw	r2,164(sp)
 40014d8:	d8003215 	stw	zero,200(sp)
 40014dc:	e7003fcc 	andi	fp,fp,255
 40014e0:	e700201c 	xori	fp,fp,128
 40014e4:	e73fe004 	addi	fp,fp,-128
 40014e8:	e0000326 	beq	fp,zero,40014f8 <___svfprintf_internal_r+0x714>
 40014ec:	d8c02917 	ldw	r3,164(sp)
 40014f0:	18c00044 	addi	r3,r3,1
 40014f4:	d8c02915 	stw	r3,164(sp)
 40014f8:	90c0008c 	andi	r3,r18,2
 40014fc:	d8c02c15 	stw	r3,176(sp)
 4001500:	18000326 	beq	r3,zero,4001510 <___svfprintf_internal_r+0x72c>
 4001504:	d8c02917 	ldw	r3,164(sp)
 4001508:	18c00084 	addi	r3,r3,2
 400150c:	d8c02915 	stw	r3,164(sp)
 4001510:	90c0210c 	andi	r3,r18,132
 4001514:	d8c03015 	stw	r3,192(sp)
 4001518:	1801c31e 	bne	r3,zero,4001c28 <___svfprintf_internal_r+0xe44>
 400151c:	d9003117 	ldw	r4,196(sp)
 4001520:	d8c02917 	ldw	r3,164(sp)
 4001524:	20e9c83a 	sub	r20,r4,r3
 4001528:	0501bf0e 	bge	zero,r20,4001c28 <___svfprintf_internal_r+0xe44>
 400152c:	02400404 	movi	r9,16
 4001530:	d8c02017 	ldw	r3,128(sp)
 4001534:	d8801f17 	ldw	r2,124(sp)
 4001538:	4d053d0e 	bge	r9,r20,4002a30 <___svfprintf_internal_r+0x1c4c>
 400153c:	01410074 	movhi	r5,1025
 4001540:	294f2184 	addi	r5,r5,15494
 4001544:	dc403c15 	stw	r17,240(sp)
 4001548:	d9403515 	stw	r5,212(sp)
 400154c:	a023883a 	mov	r17,r20
 4001550:	482d883a 	mov	r22,r9
 4001554:	9029883a 	mov	r20,r18
 4001558:	070001c4 	movi	fp,7
 400155c:	8025883a 	mov	r18,r16
 4001560:	dc002d17 	ldw	r16,180(sp)
 4001564:	00000306 	br	4001574 <___svfprintf_internal_r+0x790>
 4001568:	8c7ffc04 	addi	r17,r17,-16
 400156c:	42000204 	addi	r8,r8,8
 4001570:	b440130e 	bge	r22,r17,40015c0 <___svfprintf_internal_r+0x7dc>
 4001574:	01010074 	movhi	r4,1025
 4001578:	18c00404 	addi	r3,r3,16
 400157c:	10800044 	addi	r2,r2,1
 4001580:	210f2184 	addi	r4,r4,15494
 4001584:	41000015 	stw	r4,0(r8)
 4001588:	45800115 	stw	r22,4(r8)
 400158c:	d8c02015 	stw	r3,128(sp)
 4001590:	d8801f15 	stw	r2,124(sp)
 4001594:	e0bff40e 	bge	fp,r2,4001568 <__alt_mem_onchip_memory2_0+0xfbffc3a8>
 4001598:	d9801e04 	addi	r6,sp,120
 400159c:	800b883a 	mov	r5,r16
 40015a0:	9809883a 	mov	r4,r19
 40015a4:	4009bfc0 	call	4009bfc <__ssprint_r>
 40015a8:	103ef51e 	bne	r2,zero,4001180 <__alt_mem_onchip_memory2_0+0xfbffbfc0>
 40015ac:	8c7ffc04 	addi	r17,r17,-16
 40015b0:	d8c02017 	ldw	r3,128(sp)
 40015b4:	d8801f17 	ldw	r2,124(sp)
 40015b8:	da000404 	addi	r8,sp,16
 40015bc:	b47fed16 	blt	r22,r17,4001574 <__alt_mem_onchip_memory2_0+0xfbffc3b4>
 40015c0:	9021883a 	mov	r16,r18
 40015c4:	a025883a 	mov	r18,r20
 40015c8:	8829883a 	mov	r20,r17
 40015cc:	dc403c17 	ldw	r17,240(sp)
 40015d0:	d9403517 	ldw	r5,212(sp)
 40015d4:	a0c7883a 	add	r3,r20,r3
 40015d8:	10800044 	addi	r2,r2,1
 40015dc:	41400015 	stw	r5,0(r8)
 40015e0:	45000115 	stw	r20,4(r8)
 40015e4:	d8c02015 	stw	r3,128(sp)
 40015e8:	d8801f15 	stw	r2,124(sp)
 40015ec:	010001c4 	movi	r4,7
 40015f0:	2082c116 	blt	r4,r2,40020f8 <___svfprintf_internal_r+0x1314>
 40015f4:	df002787 	ldb	fp,158(sp)
 40015f8:	42000204 	addi	r8,r8,8
 40015fc:	e0000c26 	beq	fp,zero,4001630 <___svfprintf_internal_r+0x84c>
 4001600:	d8801f17 	ldw	r2,124(sp)
 4001604:	d9002784 	addi	r4,sp,158
 4001608:	18c00044 	addi	r3,r3,1
 400160c:	10800044 	addi	r2,r2,1
 4001610:	41000015 	stw	r4,0(r8)
 4001614:	01000044 	movi	r4,1
 4001618:	41000115 	stw	r4,4(r8)
 400161c:	d8c02015 	stw	r3,128(sp)
 4001620:	d8801f15 	stw	r2,124(sp)
 4001624:	010001c4 	movi	r4,7
 4001628:	20825a16 	blt	r4,r2,4001f94 <___svfprintf_internal_r+0x11b0>
 400162c:	42000204 	addi	r8,r8,8
 4001630:	d8802c17 	ldw	r2,176(sp)
 4001634:	10000c26 	beq	r2,zero,4001668 <___svfprintf_internal_r+0x884>
 4001638:	d8801f17 	ldw	r2,124(sp)
 400163c:	d9002704 	addi	r4,sp,156
 4001640:	18c00084 	addi	r3,r3,2
 4001644:	10800044 	addi	r2,r2,1
 4001648:	41000015 	stw	r4,0(r8)
 400164c:	01000084 	movi	r4,2
 4001650:	41000115 	stw	r4,4(r8)
 4001654:	d8c02015 	stw	r3,128(sp)
 4001658:	d8801f15 	stw	r2,124(sp)
 400165c:	010001c4 	movi	r4,7
 4001660:	20825416 	blt	r4,r2,4001fb4 <___svfprintf_internal_r+0x11d0>
 4001664:	42000204 	addi	r8,r8,8
 4001668:	d9003017 	ldw	r4,192(sp)
 400166c:	00802004 	movi	r2,128
 4001670:	2081b926 	beq	r4,r2,4001d58 <___svfprintf_internal_r+0xf74>
 4001674:	d9402a17 	ldw	r5,168(sp)
 4001678:	d8802b17 	ldw	r2,172(sp)
 400167c:	28adc83a 	sub	r22,r5,r2
 4001680:	05802f0e 	bge	zero,r22,4001740 <___svfprintf_internal_r+0x95c>
 4001684:	07000404 	movi	fp,16
 4001688:	d8801f17 	ldw	r2,124(sp)
 400168c:	e583e20e 	bge	fp,r22,4002618 <___svfprintf_internal_r+0x1834>
 4001690:	01410074 	movhi	r5,1025
 4001694:	294f1d84 	addi	r5,r5,15478
 4001698:	dc402a15 	stw	r17,168(sp)
 400169c:	d9402c15 	stw	r5,176(sp)
 40016a0:	b023883a 	mov	r17,r22
 40016a4:	050001c4 	movi	r20,7
 40016a8:	902d883a 	mov	r22,r18
 40016ac:	8025883a 	mov	r18,r16
 40016b0:	dc002d17 	ldw	r16,180(sp)
 40016b4:	00000306 	br	40016c4 <___svfprintf_internal_r+0x8e0>
 40016b8:	8c7ffc04 	addi	r17,r17,-16
 40016bc:	42000204 	addi	r8,r8,8
 40016c0:	e440110e 	bge	fp,r17,4001708 <___svfprintf_internal_r+0x924>
 40016c4:	18c00404 	addi	r3,r3,16
 40016c8:	10800044 	addi	r2,r2,1
 40016cc:	45400015 	stw	r21,0(r8)
 40016d0:	47000115 	stw	fp,4(r8)
 40016d4:	d8c02015 	stw	r3,128(sp)
 40016d8:	d8801f15 	stw	r2,124(sp)
 40016dc:	a0bff60e 	bge	r20,r2,40016b8 <__alt_mem_onchip_memory2_0+0xfbffc4f8>
 40016e0:	d9801e04 	addi	r6,sp,120
 40016e4:	800b883a 	mov	r5,r16
 40016e8:	9809883a 	mov	r4,r19
 40016ec:	4009bfc0 	call	4009bfc <__ssprint_r>
 40016f0:	103ea31e 	bne	r2,zero,4001180 <__alt_mem_onchip_memory2_0+0xfbffbfc0>
 40016f4:	8c7ffc04 	addi	r17,r17,-16
 40016f8:	d8c02017 	ldw	r3,128(sp)
 40016fc:	d8801f17 	ldw	r2,124(sp)
 4001700:	da000404 	addi	r8,sp,16
 4001704:	e47fef16 	blt	fp,r17,40016c4 <__alt_mem_onchip_memory2_0+0xfbffc504>
 4001708:	9021883a 	mov	r16,r18
 400170c:	b025883a 	mov	r18,r22
 4001710:	882d883a 	mov	r22,r17
 4001714:	dc402a17 	ldw	r17,168(sp)
 4001718:	d9002c17 	ldw	r4,176(sp)
 400171c:	1d87883a 	add	r3,r3,r22
 4001720:	10800044 	addi	r2,r2,1
 4001724:	41000015 	stw	r4,0(r8)
 4001728:	45800115 	stw	r22,4(r8)
 400172c:	d8c02015 	stw	r3,128(sp)
 4001730:	d8801f15 	stw	r2,124(sp)
 4001734:	010001c4 	movi	r4,7
 4001738:	20820e16 	blt	r4,r2,4001f74 <___svfprintf_internal_r+0x1190>
 400173c:	42000204 	addi	r8,r8,8
 4001740:	9080400c 	andi	r2,r18,256
 4001744:	10013a1e 	bne	r2,zero,4001c30 <___svfprintf_internal_r+0xe4c>
 4001748:	d9402b17 	ldw	r5,172(sp)
 400174c:	d8801f17 	ldw	r2,124(sp)
 4001750:	44000015 	stw	r16,0(r8)
 4001754:	1947883a 	add	r3,r3,r5
 4001758:	10800044 	addi	r2,r2,1
 400175c:	41400115 	stw	r5,4(r8)
 4001760:	d8c02015 	stw	r3,128(sp)
 4001764:	d8801f15 	stw	r2,124(sp)
 4001768:	010001c4 	movi	r4,7
 400176c:	2081f316 	blt	r4,r2,4001f3c <___svfprintf_internal_r+0x1158>
 4001770:	42000204 	addi	r8,r8,8
 4001774:	9480010c 	andi	r18,r18,4
 4001778:	90003226 	beq	r18,zero,4001844 <___svfprintf_internal_r+0xa60>
 400177c:	d9403117 	ldw	r5,196(sp)
 4001780:	d8802917 	ldw	r2,164(sp)
 4001784:	28a1c83a 	sub	r16,r5,r2
 4001788:	04002e0e 	bge	zero,r16,4001844 <___svfprintf_internal_r+0xa60>
 400178c:	04400404 	movi	r17,16
 4001790:	d8801f17 	ldw	r2,124(sp)
 4001794:	8c04db0e 	bge	r17,r16,4002b04 <___svfprintf_internal_r+0x1d20>
 4001798:	01410074 	movhi	r5,1025
 400179c:	294f2184 	addi	r5,r5,15494
 40017a0:	d9403515 	stw	r5,212(sp)
 40017a4:	048001c4 	movi	r18,7
 40017a8:	dd002d17 	ldw	r20,180(sp)
 40017ac:	00000306 	br	40017bc <___svfprintf_internal_r+0x9d8>
 40017b0:	843ffc04 	addi	r16,r16,-16
 40017b4:	42000204 	addi	r8,r8,8
 40017b8:	8c00130e 	bge	r17,r16,4001808 <___svfprintf_internal_r+0xa24>
 40017bc:	01010074 	movhi	r4,1025
 40017c0:	18c00404 	addi	r3,r3,16
 40017c4:	10800044 	addi	r2,r2,1
 40017c8:	210f2184 	addi	r4,r4,15494
 40017cc:	41000015 	stw	r4,0(r8)
 40017d0:	44400115 	stw	r17,4(r8)
 40017d4:	d8c02015 	stw	r3,128(sp)
 40017d8:	d8801f15 	stw	r2,124(sp)
 40017dc:	90bff40e 	bge	r18,r2,40017b0 <__alt_mem_onchip_memory2_0+0xfbffc5f0>
 40017e0:	d9801e04 	addi	r6,sp,120
 40017e4:	a00b883a 	mov	r5,r20
 40017e8:	9809883a 	mov	r4,r19
 40017ec:	4009bfc0 	call	4009bfc <__ssprint_r>
 40017f0:	103e631e 	bne	r2,zero,4001180 <__alt_mem_onchip_memory2_0+0xfbffbfc0>
 40017f4:	843ffc04 	addi	r16,r16,-16
 40017f8:	d8c02017 	ldw	r3,128(sp)
 40017fc:	d8801f17 	ldw	r2,124(sp)
 4001800:	da000404 	addi	r8,sp,16
 4001804:	8c3fed16 	blt	r17,r16,40017bc <__alt_mem_onchip_memory2_0+0xfbffc5fc>
 4001808:	d9403517 	ldw	r5,212(sp)
 400180c:	1c07883a 	add	r3,r3,r16
 4001810:	10800044 	addi	r2,r2,1
 4001814:	41400015 	stw	r5,0(r8)
 4001818:	44000115 	stw	r16,4(r8)
 400181c:	d8c02015 	stw	r3,128(sp)
 4001820:	d8801f15 	stw	r2,124(sp)
 4001824:	010001c4 	movi	r4,7
 4001828:	2080060e 	bge	r4,r2,4001844 <___svfprintf_internal_r+0xa60>
 400182c:	d9402d17 	ldw	r5,180(sp)
 4001830:	d9801e04 	addi	r6,sp,120
 4001834:	9809883a 	mov	r4,r19
 4001838:	4009bfc0 	call	4009bfc <__ssprint_r>
 400183c:	103e501e 	bne	r2,zero,4001180 <__alt_mem_onchip_memory2_0+0xfbffbfc0>
 4001840:	d8c02017 	ldw	r3,128(sp)
 4001844:	d8803117 	ldw	r2,196(sp)
 4001848:	d9002917 	ldw	r4,164(sp)
 400184c:	1100010e 	bge	r2,r4,4001854 <___svfprintf_internal_r+0xa70>
 4001850:	2005883a 	mov	r2,r4
 4001854:	d9402f17 	ldw	r5,188(sp)
 4001858:	288b883a 	add	r5,r5,r2
 400185c:	d9402f15 	stw	r5,188(sp)
 4001860:	1801be1e 	bne	r3,zero,4001f5c <___svfprintf_internal_r+0x1178>
 4001864:	b8800007 	ldb	r2,0(r23)
 4001868:	d8001f15 	stw	zero,124(sp)
 400186c:	da000404 	addi	r8,sp,16
 4001870:	103d891e 	bne	r2,zero,4000e98 <__alt_mem_onchip_memory2_0+0xfbffbcd8>
 4001874:	b823883a 	mov	r17,r23
 4001878:	003d9f06 	br	4000ef8 <__alt_mem_onchip_memory2_0+0xfbffbd38>
 400187c:	8025883a 	mov	r18,r16
 4001880:	dc002903 	ldbu	r16,164(sp)
 4001884:	e011883a 	mov	r8,fp
 4001888:	84003fcc 	andi	r16,r16,255
 400188c:	8005e61e 	bne	r16,zero,4003028 <___svfprintf_internal_r+0x2244>
 4001890:	94800414 	ori	r18,r18,16
 4001894:	9080080c 	andi	r2,r18,32
 4001898:	10022026 	beq	r2,zero,400211c <___svfprintf_internal_r+0x1338>
 400189c:	d9002e17 	ldw	r4,184(sp)
 40018a0:	d9402a17 	ldw	r5,168(sp)
 40018a4:	d8002785 	stb	zero,158(sp)
 40018a8:	20c00204 	addi	r3,r4,8
 40018ac:	25000017 	ldw	r20,0(r4)
 40018b0:	25800117 	ldw	r22,4(r4)
 40018b4:	2803ad16 	blt	r5,zero,400276c <___svfprintf_internal_r+0x1988>
 40018b8:	013fdfc4 	movi	r4,-129
 40018bc:	a584b03a 	or	r2,r20,r22
 40018c0:	d8c02e15 	stw	r3,184(sp)
 40018c4:	9124703a 	and	r18,r18,r4
 40018c8:	0039883a 	mov	fp,zero
 40018cc:	103eb01e 	bne	r2,zero,4001390 <__alt_mem_onchip_memory2_0+0xfbffc1d0>
 40018d0:	d8802a17 	ldw	r2,168(sp)
 40018d4:	1002e71e 	bne	r2,zero,4002474 <___svfprintf_internal_r+0x1690>
 40018d8:	d8002a15 	stw	zero,168(sp)
 40018dc:	d8002b15 	stw	zero,172(sp)
 40018e0:	dc001e04 	addi	r16,sp,120
 40018e4:	003ef706 	br	40014c4 <__alt_mem_onchip_memory2_0+0xfbffc304>
 40018e8:	8025883a 	mov	r18,r16
 40018ec:	dc002903 	ldbu	r16,164(sp)
 40018f0:	e011883a 	mov	r8,fp
 40018f4:	84003fcc 	andi	r16,r16,255
 40018f8:	8005c81e 	bne	r16,zero,400301c <___svfprintf_internal_r+0x2238>
 40018fc:	01010074 	movhi	r4,1025
 4001900:	210f1104 	addi	r4,r4,15428
 4001904:	d9003a15 	stw	r4,232(sp)
 4001908:	9080080c 	andi	r2,r18,32
 400190c:	10007226 	beq	r2,zero,4001ad8 <___svfprintf_internal_r+0xcf4>
 4001910:	d9402e17 	ldw	r5,184(sp)
 4001914:	2d000017 	ldw	r20,0(r5)
 4001918:	2d800117 	ldw	r22,4(r5)
 400191c:	29400204 	addi	r5,r5,8
 4001920:	d9402e15 	stw	r5,184(sp)
 4001924:	9080004c 	andi	r2,r18,1
 4001928:	1001aa26 	beq	r2,zero,4001fd4 <___svfprintf_internal_r+0x11f0>
 400192c:	a584b03a 	or	r2,r20,r22
 4001930:	10032526 	beq	r2,zero,40025c8 <___svfprintf_internal_r+0x17e4>
 4001934:	d8c02a17 	ldw	r3,168(sp)
 4001938:	00800c04 	movi	r2,48
 400193c:	d8802705 	stb	r2,156(sp)
 4001940:	dc402745 	stb	r17,157(sp)
 4001944:	d8002785 	stb	zero,158(sp)
 4001948:	90800094 	ori	r2,r18,2
 400194c:	1804a316 	blt	r3,zero,4002bdc <___svfprintf_internal_r+0x1df8>
 4001950:	00bfdfc4 	movi	r2,-129
 4001954:	90a4703a 	and	r18,r18,r2
 4001958:	94800094 	ori	r18,r18,2
 400195c:	0039883a 	mov	fp,zero
 4001960:	d9003a17 	ldw	r4,232(sp)
 4001964:	dc001e04 	addi	r16,sp,120
 4001968:	a08003cc 	andi	r2,r20,15
 400196c:	b006973a 	slli	r3,r22,28
 4001970:	2085883a 	add	r2,r4,r2
 4001974:	a028d13a 	srli	r20,r20,4
 4001978:	10800003 	ldbu	r2,0(r2)
 400197c:	b02cd13a 	srli	r22,r22,4
 4001980:	843fffc4 	addi	r16,r16,-1
 4001984:	1d28b03a 	or	r20,r3,r20
 4001988:	80800005 	stb	r2,0(r16)
 400198c:	a584b03a 	or	r2,r20,r22
 4001990:	103ff51e 	bne	r2,zero,4001968 <__alt_mem_onchip_memory2_0+0xfbffc7a8>
 4001994:	d8c02817 	ldw	r3,160(sp)
 4001998:	1c07c83a 	sub	r3,r3,r16
 400199c:	d8c02b15 	stw	r3,172(sp)
 40019a0:	003ec806 	br	40014c4 <__alt_mem_onchip_memory2_0+0xfbffc304>
 40019a4:	d8c02e17 	ldw	r3,184(sp)
 40019a8:	d9002e17 	ldw	r4,184(sp)
 40019ac:	8025883a 	mov	r18,r16
 40019b0:	18800017 	ldw	r2,0(r3)
 40019b4:	21000104 	addi	r4,r4,4
 40019b8:	00c00044 	movi	r3,1
 40019bc:	e011883a 	mov	r8,fp
 40019c0:	d8c02915 	stw	r3,164(sp)
 40019c4:	d8002785 	stb	zero,158(sp)
 40019c8:	d8801405 	stb	r2,80(sp)
 40019cc:	d9002e15 	stw	r4,184(sp)
 40019d0:	d8c02b15 	stw	r3,172(sp)
 40019d4:	d8002a15 	stw	zero,168(sp)
 40019d8:	d8003215 	stw	zero,200(sp)
 40019dc:	dc001404 	addi	r16,sp,80
 40019e0:	0039883a 	mov	fp,zero
 40019e4:	003ec406 	br	40014f8 <__alt_mem_onchip_memory2_0+0xfbffc338>
 40019e8:	8025883a 	mov	r18,r16
 40019ec:	dc002903 	ldbu	r16,164(sp)
 40019f0:	e011883a 	mov	r8,fp
 40019f4:	84003fcc 	andi	r16,r16,255
 40019f8:	803e8726 	beq	r16,zero,4001418 <__alt_mem_onchip_memory2_0+0xfbffc258>
 40019fc:	d8c02b03 	ldbu	r3,172(sp)
 4001a00:	d8c02785 	stb	r3,158(sp)
 4001a04:	003e8406 	br	4001418 <__alt_mem_onchip_memory2_0+0xfbffc258>
 4001a08:	00c00044 	movi	r3,1
 4001a0c:	d8c02905 	stb	r3,164(sp)
 4001a10:	00c00ac4 	movi	r3,43
 4001a14:	d8c02b05 	stb	r3,172(sp)
 4001a18:	bc400007 	ldb	r17,0(r23)
 4001a1c:	003d4606 	br	4000f38 <__alt_mem_onchip_memory2_0+0xfbffbd78>
 4001a20:	84000814 	ori	r16,r16,32
 4001a24:	bc400007 	ldb	r17,0(r23)
 4001a28:	003d4306 	br	4000f38 <__alt_mem_onchip_memory2_0+0xfbffbd78>
 4001a2c:	d8802e17 	ldw	r2,184(sp)
 4001a30:	8025883a 	mov	r18,r16
 4001a34:	d8002785 	stb	zero,158(sp)
 4001a38:	14000017 	ldw	r16,0(r2)
 4001a3c:	e011883a 	mov	r8,fp
 4001a40:	15000104 	addi	r20,r2,4
 4001a44:	80042126 	beq	r16,zero,4002acc <___svfprintf_internal_r+0x1ce8>
 4001a48:	d8c02a17 	ldw	r3,168(sp)
 4001a4c:	1803ee16 	blt	r3,zero,4002a08 <___svfprintf_internal_r+0x1c24>
 4001a50:	180d883a 	mov	r6,r3
 4001a54:	000b883a 	mov	r5,zero
 4001a58:	8009883a 	mov	r4,r16
 4001a5c:	df003e15 	stw	fp,248(sp)
 4001a60:	40085100 	call	4008510 <memchr>
 4001a64:	da003e17 	ldw	r8,248(sp)
 4001a68:	10046a26 	beq	r2,zero,4002c14 <___svfprintf_internal_r+0x1e30>
 4001a6c:	1405c83a 	sub	r2,r2,r16
 4001a70:	d8802b15 	stw	r2,172(sp)
 4001a74:	1003ea16 	blt	r2,zero,4002a20 <___svfprintf_internal_r+0x1c3c>
 4001a78:	df002783 	ldbu	fp,158(sp)
 4001a7c:	d8802915 	stw	r2,164(sp)
 4001a80:	dd002e15 	stw	r20,184(sp)
 4001a84:	d8002a15 	stw	zero,168(sp)
 4001a88:	d8003215 	stw	zero,200(sp)
 4001a8c:	003e9306 	br	40014dc <__alt_mem_onchip_memory2_0+0xfbffc31c>
 4001a90:	8025883a 	mov	r18,r16
 4001a94:	dc002903 	ldbu	r16,164(sp)
 4001a98:	e011883a 	mov	r8,fp
 4001a9c:	84003fcc 	andi	r16,r16,255
 4001aa0:	803f7c26 	beq	r16,zero,4001894 <__alt_mem_onchip_memory2_0+0xfbffc6d4>
 4001aa4:	d8c02b03 	ldbu	r3,172(sp)
 4001aa8:	d8c02785 	stb	r3,158(sp)
 4001aac:	003f7906 	br	4001894 <__alt_mem_onchip_memory2_0+0xfbffc6d4>
 4001ab0:	8025883a 	mov	r18,r16
 4001ab4:	dc002903 	ldbu	r16,164(sp)
 4001ab8:	e011883a 	mov	r8,fp
 4001abc:	84003fcc 	andi	r16,r16,255
 4001ac0:	8005741e 	bne	r16,zero,4003094 <___svfprintf_internal_r+0x22b0>
 4001ac4:	01010074 	movhi	r4,1025
 4001ac8:	210f1604 	addi	r4,r4,15448
 4001acc:	d9003a15 	stw	r4,232(sp)
 4001ad0:	9080080c 	andi	r2,r18,32
 4001ad4:	103f8e1e 	bne	r2,zero,4001910 <__alt_mem_onchip_memory2_0+0xfbffc750>
 4001ad8:	9080040c 	andi	r2,r18,16
 4001adc:	1002a726 	beq	r2,zero,400257c <___svfprintf_internal_r+0x1798>
 4001ae0:	d8802e17 	ldw	r2,184(sp)
 4001ae4:	002d883a 	mov	r22,zero
 4001ae8:	15000017 	ldw	r20,0(r2)
 4001aec:	10800104 	addi	r2,r2,4
 4001af0:	d8802e15 	stw	r2,184(sp)
 4001af4:	003f8b06 	br	4001924 <__alt_mem_onchip_memory2_0+0xfbffc764>
 4001af8:	84000054 	ori	r16,r16,1
 4001afc:	bc400007 	ldb	r17,0(r23)
 4001b00:	003d0d06 	br	4000f38 <__alt_mem_onchip_memory2_0+0xfbffbd78>
 4001b04:	d8802b07 	ldb	r2,172(sp)
 4001b08:	1002a41e 	bne	r2,zero,400259c <___svfprintf_internal_r+0x17b8>
 4001b0c:	00c00044 	movi	r3,1
 4001b10:	d8c02905 	stb	r3,164(sp)
 4001b14:	00c00804 	movi	r3,32
 4001b18:	d8c02b05 	stb	r3,172(sp)
 4001b1c:	bc400007 	ldb	r17,0(r23)
 4001b20:	003d0506 	br	4000f38 <__alt_mem_onchip_memory2_0+0xfbffbd78>
 4001b24:	8025883a 	mov	r18,r16
 4001b28:	dc002903 	ldbu	r16,164(sp)
 4001b2c:	e011883a 	mov	r8,fp
 4001b30:	84003fcc 	andi	r16,r16,255
 4001b34:	803e0626 	beq	r16,zero,4001350 <__alt_mem_onchip_memory2_0+0xfbffc190>
 4001b38:	d8c02b03 	ldbu	r3,172(sp)
 4001b3c:	d8c02785 	stb	r3,158(sp)
 4001b40:	003e0306 	br	4001350 <__alt_mem_onchip_memory2_0+0xfbffc190>
 4001b44:	bc400007 	ldb	r17,0(r23)
 4001b48:	00801b04 	movi	r2,108
 4001b4c:	88830a26 	beq	r17,r2,4002778 <___svfprintf_internal_r+0x1994>
 4001b50:	84000414 	ori	r16,r16,16
 4001b54:	003cf806 	br	4000f38 <__alt_mem_onchip_memory2_0+0xfbffbd78>
 4001b58:	8025883a 	mov	r18,r16
 4001b5c:	dc002903 	ldbu	r16,164(sp)
 4001b60:	e011883a 	mov	r8,fp
 4001b64:	84003fcc 	andi	r16,r16,255
 4001b68:	8005471e 	bne	r16,zero,4003088 <___svfprintf_internal_r+0x22a4>
 4001b6c:	9080080c 	andi	r2,r18,32
 4001b70:	10028c26 	beq	r2,zero,40025a4 <___svfprintf_internal_r+0x17c0>
 4001b74:	d9002e17 	ldw	r4,184(sp)
 4001b78:	d9402f17 	ldw	r5,188(sp)
 4001b7c:	20800017 	ldw	r2,0(r4)
 4001b80:	2807d7fa 	srai	r3,r5,31
 4001b84:	21000104 	addi	r4,r4,4
 4001b88:	d9002e15 	stw	r4,184(sp)
 4001b8c:	11400015 	stw	r5,0(r2)
 4001b90:	10c00115 	stw	r3,4(r2)
 4001b94:	003cbe06 	br	4000e90 <__alt_mem_onchip_memory2_0+0xfbffbcd0>
 4001b98:	84001014 	ori	r16,r16,64
 4001b9c:	bc400007 	ldb	r17,0(r23)
 4001ba0:	003ce506 	br	4000f38 <__alt_mem_onchip_memory2_0+0xfbffbd78>
 4001ba4:	01010074 	movhi	r4,1025
 4001ba8:	210f1604 	addi	r4,r4,15448
 4001bac:	0039883a 	mov	fp,zero
 4001bb0:	d9003a15 	stw	r4,232(sp)
 4001bb4:	04401e04 	movi	r17,120
 4001bb8:	003f6906 	br	4001960 <__alt_mem_onchip_memory2_0+0xfbffc7a0>
 4001bbc:	8025883a 	mov	r18,r16
 4001bc0:	dc002903 	ldbu	r16,164(sp)
 4001bc4:	e011883a 	mov	r8,fp
 4001bc8:	84003fcc 	andi	r16,r16,255
 4001bcc:	8005261e 	bne	r16,zero,4003068 <___svfprintf_internal_r+0x2284>
 4001bd0:	883d6526 	beq	r17,zero,4001168 <__alt_mem_onchip_memory2_0+0xfbffbfa8>
 4001bd4:	00c00044 	movi	r3,1
 4001bd8:	d8c02915 	stw	r3,164(sp)
 4001bdc:	dc401405 	stb	r17,80(sp)
 4001be0:	d8002785 	stb	zero,158(sp)
 4001be4:	003f7a06 	br	40019d0 <__alt_mem_onchip_memory2_0+0xfbffc810>
 4001be8:	01010074 	movhi	r4,1025
 4001bec:	210f1604 	addi	r4,r4,15448
 4001bf0:	d9003a15 	stw	r4,232(sp)
 4001bf4:	d8c02e15 	stw	r3,184(sp)
 4001bf8:	1025883a 	mov	r18,r2
 4001bfc:	04401e04 	movi	r17,120
 4001c00:	a584b03a 	or	r2,r20,r22
 4001c04:	1000fa1e 	bne	r2,zero,4001ff0 <___svfprintf_internal_r+0x120c>
 4001c08:	0039883a 	mov	fp,zero
 4001c0c:	00800084 	movi	r2,2
 4001c10:	10803fcc 	andi	r2,r2,255
 4001c14:	00c00044 	movi	r3,1
 4001c18:	10c21626 	beq	r2,r3,4002474 <___svfprintf_internal_r+0x1690>
 4001c1c:	00c00084 	movi	r3,2
 4001c20:	10fe0e1e 	bne	r2,r3,400145c <__alt_mem_onchip_memory2_0+0xfbffc29c>
 4001c24:	003d4606 	br	4001140 <__alt_mem_onchip_memory2_0+0xfbffbf80>
 4001c28:	d8c02017 	ldw	r3,128(sp)
 4001c2c:	003e7306 	br	40015fc <__alt_mem_onchip_memory2_0+0xfbffc43c>
 4001c30:	00801944 	movi	r2,101
 4001c34:	14407c0e 	bge	r2,r17,4001e28 <___svfprintf_internal_r+0x1044>
 4001c38:	d9003617 	ldw	r4,216(sp)
 4001c3c:	d9403717 	ldw	r5,220(sp)
 4001c40:	000d883a 	mov	r6,zero
 4001c44:	000f883a 	mov	r7,zero
 4001c48:	d8c03d15 	stw	r3,244(sp)
 4001c4c:	da003e15 	stw	r8,248(sp)
 4001c50:	400fc800 	call	400fc80 <__eqdf2>
 4001c54:	d8c03d17 	ldw	r3,244(sp)
 4001c58:	da003e17 	ldw	r8,248(sp)
 4001c5c:	1000f51e 	bne	r2,zero,4002034 <___svfprintf_internal_r+0x1250>
 4001c60:	d8801f17 	ldw	r2,124(sp)
 4001c64:	01010074 	movhi	r4,1025
 4001c68:	210f1d04 	addi	r4,r4,15476
 4001c6c:	18c00044 	addi	r3,r3,1
 4001c70:	10800044 	addi	r2,r2,1
 4001c74:	41000015 	stw	r4,0(r8)
 4001c78:	01000044 	movi	r4,1
 4001c7c:	41000115 	stw	r4,4(r8)
 4001c80:	d8c02015 	stw	r3,128(sp)
 4001c84:	d8801f15 	stw	r2,124(sp)
 4001c88:	010001c4 	movi	r4,7
 4001c8c:	20826616 	blt	r4,r2,4002628 <___svfprintf_internal_r+0x1844>
 4001c90:	42000204 	addi	r8,r8,8
 4001c94:	d8802617 	ldw	r2,152(sp)
 4001c98:	d9403317 	ldw	r5,204(sp)
 4001c9c:	11400216 	blt	r2,r5,4001ca8 <___svfprintf_internal_r+0xec4>
 4001ca0:	9080004c 	andi	r2,r18,1
 4001ca4:	103eb326 	beq	r2,zero,4001774 <__alt_mem_onchip_memory2_0+0xfbffc5b4>
 4001ca8:	d8803817 	ldw	r2,224(sp)
 4001cac:	d9003417 	ldw	r4,208(sp)
 4001cb0:	d9403817 	ldw	r5,224(sp)
 4001cb4:	1887883a 	add	r3,r3,r2
 4001cb8:	d8801f17 	ldw	r2,124(sp)
 4001cbc:	41000015 	stw	r4,0(r8)
 4001cc0:	41400115 	stw	r5,4(r8)
 4001cc4:	10800044 	addi	r2,r2,1
 4001cc8:	d8c02015 	stw	r3,128(sp)
 4001ccc:	d8801f15 	stw	r2,124(sp)
 4001cd0:	010001c4 	movi	r4,7
 4001cd4:	2082af16 	blt	r4,r2,4002794 <___svfprintf_internal_r+0x19b0>
 4001cd8:	42000204 	addi	r8,r8,8
 4001cdc:	d8803317 	ldw	r2,204(sp)
 4001ce0:	143fffc4 	addi	r16,r2,-1
 4001ce4:	043ea30e 	bge	zero,r16,4001774 <__alt_mem_onchip_memory2_0+0xfbffc5b4>
 4001ce8:	04400404 	movi	r17,16
 4001cec:	d8801f17 	ldw	r2,124(sp)
 4001cf0:	8c00860e 	bge	r17,r16,4001f0c <___svfprintf_internal_r+0x1128>
 4001cf4:	01410074 	movhi	r5,1025
 4001cf8:	294f1d84 	addi	r5,r5,15478
 4001cfc:	d9402c15 	stw	r5,176(sp)
 4001d00:	058001c4 	movi	r22,7
 4001d04:	dd002d17 	ldw	r20,180(sp)
 4001d08:	00000306 	br	4001d18 <___svfprintf_internal_r+0xf34>
 4001d0c:	42000204 	addi	r8,r8,8
 4001d10:	843ffc04 	addi	r16,r16,-16
 4001d14:	8c00800e 	bge	r17,r16,4001f18 <___svfprintf_internal_r+0x1134>
 4001d18:	18c00404 	addi	r3,r3,16
 4001d1c:	10800044 	addi	r2,r2,1
 4001d20:	45400015 	stw	r21,0(r8)
 4001d24:	44400115 	stw	r17,4(r8)
 4001d28:	d8c02015 	stw	r3,128(sp)
 4001d2c:	d8801f15 	stw	r2,124(sp)
 4001d30:	b0bff60e 	bge	r22,r2,4001d0c <__alt_mem_onchip_memory2_0+0xfbffcb4c>
 4001d34:	d9801e04 	addi	r6,sp,120
 4001d38:	a00b883a 	mov	r5,r20
 4001d3c:	9809883a 	mov	r4,r19
 4001d40:	4009bfc0 	call	4009bfc <__ssprint_r>
 4001d44:	103d0e1e 	bne	r2,zero,4001180 <__alt_mem_onchip_memory2_0+0xfbffbfc0>
 4001d48:	d8c02017 	ldw	r3,128(sp)
 4001d4c:	d8801f17 	ldw	r2,124(sp)
 4001d50:	da000404 	addi	r8,sp,16
 4001d54:	003fee06 	br	4001d10 <__alt_mem_onchip_memory2_0+0xfbffcb50>
 4001d58:	d9403117 	ldw	r5,196(sp)
 4001d5c:	d8802917 	ldw	r2,164(sp)
 4001d60:	28adc83a 	sub	r22,r5,r2
 4001d64:	05be430e 	bge	zero,r22,4001674 <__alt_mem_onchip_memory2_0+0xfbffc4b4>
 4001d68:	07000404 	movi	fp,16
 4001d6c:	d8801f17 	ldw	r2,124(sp)
 4001d70:	e583a20e 	bge	fp,r22,4002bfc <___svfprintf_internal_r+0x1e18>
 4001d74:	01410074 	movhi	r5,1025
 4001d78:	294f1d84 	addi	r5,r5,15478
 4001d7c:	dc403015 	stw	r17,192(sp)
 4001d80:	d9402c15 	stw	r5,176(sp)
 4001d84:	b023883a 	mov	r17,r22
 4001d88:	050001c4 	movi	r20,7
 4001d8c:	902d883a 	mov	r22,r18
 4001d90:	8025883a 	mov	r18,r16
 4001d94:	dc002d17 	ldw	r16,180(sp)
 4001d98:	00000306 	br	4001da8 <___svfprintf_internal_r+0xfc4>
 4001d9c:	8c7ffc04 	addi	r17,r17,-16
 4001da0:	42000204 	addi	r8,r8,8
 4001da4:	e440110e 	bge	fp,r17,4001dec <___svfprintf_internal_r+0x1008>
 4001da8:	18c00404 	addi	r3,r3,16
 4001dac:	10800044 	addi	r2,r2,1
 4001db0:	45400015 	stw	r21,0(r8)
 4001db4:	47000115 	stw	fp,4(r8)
 4001db8:	d8c02015 	stw	r3,128(sp)
 4001dbc:	d8801f15 	stw	r2,124(sp)
 4001dc0:	a0bff60e 	bge	r20,r2,4001d9c <__alt_mem_onchip_memory2_0+0xfbffcbdc>
 4001dc4:	d9801e04 	addi	r6,sp,120
 4001dc8:	800b883a 	mov	r5,r16
 4001dcc:	9809883a 	mov	r4,r19
 4001dd0:	4009bfc0 	call	4009bfc <__ssprint_r>
 4001dd4:	103cea1e 	bne	r2,zero,4001180 <__alt_mem_onchip_memory2_0+0xfbffbfc0>
 4001dd8:	8c7ffc04 	addi	r17,r17,-16
 4001ddc:	d8c02017 	ldw	r3,128(sp)
 4001de0:	d8801f17 	ldw	r2,124(sp)
 4001de4:	da000404 	addi	r8,sp,16
 4001de8:	e47fef16 	blt	fp,r17,4001da8 <__alt_mem_onchip_memory2_0+0xfbffcbe8>
 4001dec:	9021883a 	mov	r16,r18
 4001df0:	b025883a 	mov	r18,r22
 4001df4:	882d883a 	mov	r22,r17
 4001df8:	dc403017 	ldw	r17,192(sp)
 4001dfc:	d9002c17 	ldw	r4,176(sp)
 4001e00:	1d87883a 	add	r3,r3,r22
 4001e04:	10800044 	addi	r2,r2,1
 4001e08:	41000015 	stw	r4,0(r8)
 4001e0c:	45800115 	stw	r22,4(r8)
 4001e10:	d8c02015 	stw	r3,128(sp)
 4001e14:	d8801f15 	stw	r2,124(sp)
 4001e18:	010001c4 	movi	r4,7
 4001e1c:	20819a16 	blt	r4,r2,4002488 <___svfprintf_internal_r+0x16a4>
 4001e20:	42000204 	addi	r8,r8,8
 4001e24:	003e1306 	br	4001674 <__alt_mem_onchip_memory2_0+0xfbffc4b4>
 4001e28:	d9403317 	ldw	r5,204(sp)
 4001e2c:	00800044 	movi	r2,1
 4001e30:	18c00044 	addi	r3,r3,1
 4001e34:	1141710e 	bge	r2,r5,40023fc <___svfprintf_internal_r+0x1618>
 4001e38:	dc401f17 	ldw	r17,124(sp)
 4001e3c:	00800044 	movi	r2,1
 4001e40:	40800115 	stw	r2,4(r8)
 4001e44:	8c400044 	addi	r17,r17,1
 4001e48:	44000015 	stw	r16,0(r8)
 4001e4c:	d8c02015 	stw	r3,128(sp)
 4001e50:	dc401f15 	stw	r17,124(sp)
 4001e54:	008001c4 	movi	r2,7
 4001e58:	14417416 	blt	r2,r17,400242c <___svfprintf_internal_r+0x1648>
 4001e5c:	42000204 	addi	r8,r8,8
 4001e60:	d8803817 	ldw	r2,224(sp)
 4001e64:	d9003417 	ldw	r4,208(sp)
 4001e68:	8c400044 	addi	r17,r17,1
 4001e6c:	10c7883a 	add	r3,r2,r3
 4001e70:	40800115 	stw	r2,4(r8)
 4001e74:	41000015 	stw	r4,0(r8)
 4001e78:	d8c02015 	stw	r3,128(sp)
 4001e7c:	dc401f15 	stw	r17,124(sp)
 4001e80:	008001c4 	movi	r2,7
 4001e84:	14417216 	blt	r2,r17,4002450 <___svfprintf_internal_r+0x166c>
 4001e88:	45800204 	addi	r22,r8,8
 4001e8c:	d9003617 	ldw	r4,216(sp)
 4001e90:	d9403717 	ldw	r5,220(sp)
 4001e94:	000d883a 	mov	r6,zero
 4001e98:	000f883a 	mov	r7,zero
 4001e9c:	d8c03d15 	stw	r3,244(sp)
 4001ea0:	400fc800 	call	400fc80 <__eqdf2>
 4001ea4:	d8c03d17 	ldw	r3,244(sp)
 4001ea8:	1000b326 	beq	r2,zero,4002178 <___svfprintf_internal_r+0x1394>
 4001eac:	d9403317 	ldw	r5,204(sp)
 4001eb0:	84000044 	addi	r16,r16,1
 4001eb4:	8c400044 	addi	r17,r17,1
 4001eb8:	28bfffc4 	addi	r2,r5,-1
 4001ebc:	1887883a 	add	r3,r3,r2
 4001ec0:	b0800115 	stw	r2,4(r22)
 4001ec4:	b4000015 	stw	r16,0(r22)
 4001ec8:	d8c02015 	stw	r3,128(sp)
 4001ecc:	dc401f15 	stw	r17,124(sp)
 4001ed0:	008001c4 	movi	r2,7
 4001ed4:	1440d216 	blt	r2,r17,4002220 <___svfprintf_internal_r+0x143c>
 4001ed8:	b5800204 	addi	r22,r22,8
 4001edc:	d9003b17 	ldw	r4,236(sp)
 4001ee0:	df0022c4 	addi	fp,sp,139
 4001ee4:	8c400044 	addi	r17,r17,1
 4001ee8:	20c7883a 	add	r3,r4,r3
 4001eec:	b7000015 	stw	fp,0(r22)
 4001ef0:	b1000115 	stw	r4,4(r22)
 4001ef4:	d8c02015 	stw	r3,128(sp)
 4001ef8:	dc401f15 	stw	r17,124(sp)
 4001efc:	008001c4 	movi	r2,7
 4001f00:	14400e16 	blt	r2,r17,4001f3c <___svfprintf_internal_r+0x1158>
 4001f04:	b2000204 	addi	r8,r22,8
 4001f08:	003e1a06 	br	4001774 <__alt_mem_onchip_memory2_0+0xfbffc5b4>
 4001f0c:	01010074 	movhi	r4,1025
 4001f10:	210f1d84 	addi	r4,r4,15478
 4001f14:	d9002c15 	stw	r4,176(sp)
 4001f18:	d9002c17 	ldw	r4,176(sp)
 4001f1c:	1c07883a 	add	r3,r3,r16
 4001f20:	44000115 	stw	r16,4(r8)
 4001f24:	41000015 	stw	r4,0(r8)
 4001f28:	10800044 	addi	r2,r2,1
 4001f2c:	d8c02015 	stw	r3,128(sp)
 4001f30:	d8801f15 	stw	r2,124(sp)
 4001f34:	010001c4 	movi	r4,7
 4001f38:	20be0d0e 	bge	r4,r2,4001770 <__alt_mem_onchip_memory2_0+0xfbffc5b0>
 4001f3c:	d9402d17 	ldw	r5,180(sp)
 4001f40:	d9801e04 	addi	r6,sp,120
 4001f44:	9809883a 	mov	r4,r19
 4001f48:	4009bfc0 	call	4009bfc <__ssprint_r>
 4001f4c:	103c8c1e 	bne	r2,zero,4001180 <__alt_mem_onchip_memory2_0+0xfbffbfc0>
 4001f50:	d8c02017 	ldw	r3,128(sp)
 4001f54:	da000404 	addi	r8,sp,16
 4001f58:	003e0606 	br	4001774 <__alt_mem_onchip_memory2_0+0xfbffc5b4>
 4001f5c:	d9402d17 	ldw	r5,180(sp)
 4001f60:	d9801e04 	addi	r6,sp,120
 4001f64:	9809883a 	mov	r4,r19
 4001f68:	4009bfc0 	call	4009bfc <__ssprint_r>
 4001f6c:	103e3d26 	beq	r2,zero,4001864 <__alt_mem_onchip_memory2_0+0xfbffc6a4>
 4001f70:	003c8306 	br	4001180 <__alt_mem_onchip_memory2_0+0xfbffbfc0>
 4001f74:	d9402d17 	ldw	r5,180(sp)
 4001f78:	d9801e04 	addi	r6,sp,120
 4001f7c:	9809883a 	mov	r4,r19
 4001f80:	4009bfc0 	call	4009bfc <__ssprint_r>
 4001f84:	103c7e1e 	bne	r2,zero,4001180 <__alt_mem_onchip_memory2_0+0xfbffbfc0>
 4001f88:	d8c02017 	ldw	r3,128(sp)
 4001f8c:	da000404 	addi	r8,sp,16
 4001f90:	003deb06 	br	4001740 <__alt_mem_onchip_memory2_0+0xfbffc580>
 4001f94:	d9402d17 	ldw	r5,180(sp)
 4001f98:	d9801e04 	addi	r6,sp,120
 4001f9c:	9809883a 	mov	r4,r19
 4001fa0:	4009bfc0 	call	4009bfc <__ssprint_r>
 4001fa4:	103c761e 	bne	r2,zero,4001180 <__alt_mem_onchip_memory2_0+0xfbffbfc0>
 4001fa8:	d8c02017 	ldw	r3,128(sp)
 4001fac:	da000404 	addi	r8,sp,16
 4001fb0:	003d9f06 	br	4001630 <__alt_mem_onchip_memory2_0+0xfbffc470>
 4001fb4:	d9402d17 	ldw	r5,180(sp)
 4001fb8:	d9801e04 	addi	r6,sp,120
 4001fbc:	9809883a 	mov	r4,r19
 4001fc0:	4009bfc0 	call	4009bfc <__ssprint_r>
 4001fc4:	103c6e1e 	bne	r2,zero,4001180 <__alt_mem_onchip_memory2_0+0xfbffbfc0>
 4001fc8:	d8c02017 	ldw	r3,128(sp)
 4001fcc:	da000404 	addi	r8,sp,16
 4001fd0:	003da506 	br	4001668 <__alt_mem_onchip_memory2_0+0xfbffc4a8>
 4001fd4:	d9402a17 	ldw	r5,168(sp)
 4001fd8:	d8002785 	stb	zero,158(sp)
 4001fdc:	283f0816 	blt	r5,zero,4001c00 <__alt_mem_onchip_memory2_0+0xfbffca40>
 4001fe0:	00ffdfc4 	movi	r3,-129
 4001fe4:	a584b03a 	or	r2,r20,r22
 4001fe8:	90e4703a 	and	r18,r18,r3
 4001fec:	103c5126 	beq	r2,zero,4001134 <__alt_mem_onchip_memory2_0+0xfbffbf74>
 4001ff0:	0039883a 	mov	fp,zero
 4001ff4:	003e5a06 	br	4001960 <__alt_mem_onchip_memory2_0+0xfbffc7a0>
 4001ff8:	9080040c 	andi	r2,r18,16
 4001ffc:	10013d26 	beq	r2,zero,40024f4 <___svfprintf_internal_r+0x1710>
 4002000:	d8c02e17 	ldw	r3,184(sp)
 4002004:	d9002a17 	ldw	r4,168(sp)
 4002008:	d8002785 	stb	zero,158(sp)
 400200c:	18800104 	addi	r2,r3,4
 4002010:	1d000017 	ldw	r20,0(r3)
 4002014:	002d883a 	mov	r22,zero
 4002018:	20013f16 	blt	r4,zero,4002518 <___svfprintf_internal_r+0x1734>
 400201c:	00ffdfc4 	movi	r3,-129
 4002020:	d8802e15 	stw	r2,184(sp)
 4002024:	90e4703a 	and	r18,r18,r3
 4002028:	a03d0926 	beq	r20,zero,4001450 <__alt_mem_onchip_memory2_0+0xfbffc290>
 400202c:	0039883a 	mov	fp,zero
 4002030:	003d0c06 	br	4001464 <__alt_mem_onchip_memory2_0+0xfbffc2a4>
 4002034:	dc402617 	ldw	r17,152(sp)
 4002038:	0441830e 	bge	zero,r17,4002648 <___svfprintf_internal_r+0x1864>
 400203c:	dc403217 	ldw	r17,200(sp)
 4002040:	d8803317 	ldw	r2,204(sp)
 4002044:	1440010e 	bge	r2,r17,400204c <___svfprintf_internal_r+0x1268>
 4002048:	1023883a 	mov	r17,r2
 400204c:	04400a0e 	bge	zero,r17,4002078 <___svfprintf_internal_r+0x1294>
 4002050:	d8801f17 	ldw	r2,124(sp)
 4002054:	1c47883a 	add	r3,r3,r17
 4002058:	44000015 	stw	r16,0(r8)
 400205c:	10800044 	addi	r2,r2,1
 4002060:	44400115 	stw	r17,4(r8)
 4002064:	d8c02015 	stw	r3,128(sp)
 4002068:	d8801f15 	stw	r2,124(sp)
 400206c:	010001c4 	movi	r4,7
 4002070:	20827516 	blt	r4,r2,4002a48 <___svfprintf_internal_r+0x1c64>
 4002074:	42000204 	addi	r8,r8,8
 4002078:	88027b16 	blt	r17,zero,4002a68 <___svfprintf_internal_r+0x1c84>
 400207c:	d9003217 	ldw	r4,200(sp)
 4002080:	2463c83a 	sub	r17,r4,r17
 4002084:	0440990e 	bge	zero,r17,40022ec <___svfprintf_internal_r+0x1508>
 4002088:	05800404 	movi	r22,16
 400208c:	d8801f17 	ldw	r2,124(sp)
 4002090:	b441530e 	bge	r22,r17,40025e0 <___svfprintf_internal_r+0x17fc>
 4002094:	01010074 	movhi	r4,1025
 4002098:	210f1d84 	addi	r4,r4,15478
 400209c:	d9002c15 	stw	r4,176(sp)
 40020a0:	070001c4 	movi	fp,7
 40020a4:	dd002d17 	ldw	r20,180(sp)
 40020a8:	00000306 	br	40020b8 <___svfprintf_internal_r+0x12d4>
 40020ac:	42000204 	addi	r8,r8,8
 40020b0:	8c7ffc04 	addi	r17,r17,-16
 40020b4:	b4414d0e 	bge	r22,r17,40025ec <___svfprintf_internal_r+0x1808>
 40020b8:	18c00404 	addi	r3,r3,16
 40020bc:	10800044 	addi	r2,r2,1
 40020c0:	45400015 	stw	r21,0(r8)
 40020c4:	45800115 	stw	r22,4(r8)
 40020c8:	d8c02015 	stw	r3,128(sp)
 40020cc:	d8801f15 	stw	r2,124(sp)
 40020d0:	e0bff60e 	bge	fp,r2,40020ac <__alt_mem_onchip_memory2_0+0xfbffceec>
 40020d4:	d9801e04 	addi	r6,sp,120
 40020d8:	a00b883a 	mov	r5,r20
 40020dc:	9809883a 	mov	r4,r19
 40020e0:	4009bfc0 	call	4009bfc <__ssprint_r>
 40020e4:	103c261e 	bne	r2,zero,4001180 <__alt_mem_onchip_memory2_0+0xfbffbfc0>
 40020e8:	d8c02017 	ldw	r3,128(sp)
 40020ec:	d8801f17 	ldw	r2,124(sp)
 40020f0:	da000404 	addi	r8,sp,16
 40020f4:	003fee06 	br	40020b0 <__alt_mem_onchip_memory2_0+0xfbffcef0>
 40020f8:	d9402d17 	ldw	r5,180(sp)
 40020fc:	d9801e04 	addi	r6,sp,120
 4002100:	9809883a 	mov	r4,r19
 4002104:	4009bfc0 	call	4009bfc <__ssprint_r>
 4002108:	103c1d1e 	bne	r2,zero,4001180 <__alt_mem_onchip_memory2_0+0xfbffbfc0>
 400210c:	d8c02017 	ldw	r3,128(sp)
 4002110:	df002787 	ldb	fp,158(sp)
 4002114:	da000404 	addi	r8,sp,16
 4002118:	003d3806 	br	40015fc <__alt_mem_onchip_memory2_0+0xfbffc43c>
 400211c:	9080040c 	andi	r2,r18,16
 4002120:	10005c26 	beq	r2,zero,4002294 <___svfprintf_internal_r+0x14b0>
 4002124:	d8c02e17 	ldw	r3,184(sp)
 4002128:	d9002a17 	ldw	r4,168(sp)
 400212c:	d8002785 	stb	zero,158(sp)
 4002130:	18800104 	addi	r2,r3,4
 4002134:	1d000017 	ldw	r20,0(r3)
 4002138:	002d883a 	mov	r22,zero
 400213c:	20005e16 	blt	r4,zero,40022b8 <___svfprintf_internal_r+0x14d4>
 4002140:	00ffdfc4 	movi	r3,-129
 4002144:	d8802e15 	stw	r2,184(sp)
 4002148:	90e4703a 	and	r18,r18,r3
 400214c:	0039883a 	mov	fp,zero
 4002150:	a03ddf26 	beq	r20,zero,40018d0 <__alt_mem_onchip_memory2_0+0xfbffc710>
 4002154:	00800244 	movi	r2,9
 4002158:	153c8e36 	bltu	r2,r20,4001394 <__alt_mem_onchip_memory2_0+0xfbffc1d4>
 400215c:	a5000c04 	addi	r20,r20,48
 4002160:	dc001dc4 	addi	r16,sp,119
 4002164:	dd001dc5 	stb	r20,119(sp)
 4002168:	d8c02817 	ldw	r3,160(sp)
 400216c:	1c07c83a 	sub	r3,r3,r16
 4002170:	d8c02b15 	stw	r3,172(sp)
 4002174:	003cd306 	br	40014c4 <__alt_mem_onchip_memory2_0+0xfbffc304>
 4002178:	d8803317 	ldw	r2,204(sp)
 400217c:	143fffc4 	addi	r16,r2,-1
 4002180:	043f560e 	bge	zero,r16,4001edc <__alt_mem_onchip_memory2_0+0xfbffcd1c>
 4002184:	07000404 	movi	fp,16
 4002188:	e403530e 	bge	fp,r16,4002ed8 <___svfprintf_internal_r+0x20f4>
 400218c:	01410074 	movhi	r5,1025
 4002190:	294f1d84 	addi	r5,r5,15478
 4002194:	d9402c15 	stw	r5,176(sp)
 4002198:	01c001c4 	movi	r7,7
 400219c:	dd002d17 	ldw	r20,180(sp)
 40021a0:	00000306 	br	40021b0 <___svfprintf_internal_r+0x13cc>
 40021a4:	843ffc04 	addi	r16,r16,-16
 40021a8:	b5800204 	addi	r22,r22,8
 40021ac:	e400130e 	bge	fp,r16,40021fc <___svfprintf_internal_r+0x1418>
 40021b0:	18c00404 	addi	r3,r3,16
 40021b4:	8c400044 	addi	r17,r17,1
 40021b8:	b5400015 	stw	r21,0(r22)
 40021bc:	b7000115 	stw	fp,4(r22)
 40021c0:	d8c02015 	stw	r3,128(sp)
 40021c4:	dc401f15 	stw	r17,124(sp)
 40021c8:	3c7ff60e 	bge	r7,r17,40021a4 <__alt_mem_onchip_memory2_0+0xfbffcfe4>
 40021cc:	d9801e04 	addi	r6,sp,120
 40021d0:	a00b883a 	mov	r5,r20
 40021d4:	9809883a 	mov	r4,r19
 40021d8:	d9c03d15 	stw	r7,244(sp)
 40021dc:	4009bfc0 	call	4009bfc <__ssprint_r>
 40021e0:	d9c03d17 	ldw	r7,244(sp)
 40021e4:	103be61e 	bne	r2,zero,4001180 <__alt_mem_onchip_memory2_0+0xfbffbfc0>
 40021e8:	843ffc04 	addi	r16,r16,-16
 40021ec:	d8c02017 	ldw	r3,128(sp)
 40021f0:	dc401f17 	ldw	r17,124(sp)
 40021f4:	dd800404 	addi	r22,sp,16
 40021f8:	e43fed16 	blt	fp,r16,40021b0 <__alt_mem_onchip_memory2_0+0xfbffcff0>
 40021fc:	d8802c17 	ldw	r2,176(sp)
 4002200:	1c07883a 	add	r3,r3,r16
 4002204:	8c400044 	addi	r17,r17,1
 4002208:	b0800015 	stw	r2,0(r22)
 400220c:	b4000115 	stw	r16,4(r22)
 4002210:	d8c02015 	stw	r3,128(sp)
 4002214:	dc401f15 	stw	r17,124(sp)
 4002218:	008001c4 	movi	r2,7
 400221c:	147f2e0e 	bge	r2,r17,4001ed8 <__alt_mem_onchip_memory2_0+0xfbffcd18>
 4002220:	d9402d17 	ldw	r5,180(sp)
 4002224:	d9801e04 	addi	r6,sp,120
 4002228:	9809883a 	mov	r4,r19
 400222c:	4009bfc0 	call	4009bfc <__ssprint_r>
 4002230:	103bd31e 	bne	r2,zero,4001180 <__alt_mem_onchip_memory2_0+0xfbffbfc0>
 4002234:	d8c02017 	ldw	r3,128(sp)
 4002238:	dc401f17 	ldw	r17,124(sp)
 400223c:	dd800404 	addi	r22,sp,16
 4002240:	003f2606 	br	4001edc <__alt_mem_onchip_memory2_0+0xfbffcd1c>
 4002244:	9080040c 	andi	r2,r18,16
 4002248:	1000c326 	beq	r2,zero,4002558 <___svfprintf_internal_r+0x1774>
 400224c:	d9402e17 	ldw	r5,184(sp)
 4002250:	2d000017 	ldw	r20,0(r5)
 4002254:	29400104 	addi	r5,r5,4
 4002258:	d9402e15 	stw	r5,184(sp)
 400225c:	a02dd7fa 	srai	r22,r20,31
 4002260:	b005883a 	mov	r2,r22
 4002264:	103c430e 	bge	r2,zero,4001374 <__alt_mem_onchip_memory2_0+0xfbffc1b4>
 4002268:	d9402a17 	ldw	r5,168(sp)
 400226c:	0529c83a 	sub	r20,zero,r20
 4002270:	07000b44 	movi	fp,45
 4002274:	a004c03a 	cmpne	r2,r20,zero
 4002278:	05adc83a 	sub	r22,zero,r22
 400227c:	df002785 	stb	fp,158(sp)
 4002280:	b0adc83a 	sub	r22,r22,r2
 4002284:	28022e16 	blt	r5,zero,4002b40 <___svfprintf_internal_r+0x1d5c>
 4002288:	00bfdfc4 	movi	r2,-129
 400228c:	90a4703a 	and	r18,r18,r2
 4002290:	003c3f06 	br	4001390 <__alt_mem_onchip_memory2_0+0xfbffc1d0>
 4002294:	9080100c 	andi	r2,r18,64
 4002298:	d8002785 	stb	zero,158(sp)
 400229c:	10012526 	beq	r2,zero,4002734 <___svfprintf_internal_r+0x1950>
 40022a0:	d9402e17 	ldw	r5,184(sp)
 40022a4:	d8c02a17 	ldw	r3,168(sp)
 40022a8:	002d883a 	mov	r22,zero
 40022ac:	28800104 	addi	r2,r5,4
 40022b0:	2d00000b 	ldhu	r20,0(r5)
 40022b4:	183fa20e 	bge	r3,zero,4002140 <__alt_mem_onchip_memory2_0+0xfbffcf80>
 40022b8:	d8802e15 	stw	r2,184(sp)
 40022bc:	0039883a 	mov	fp,zero
 40022c0:	a584b03a 	or	r2,r20,r22
 40022c4:	103c321e 	bne	r2,zero,4001390 <__alt_mem_onchip_memory2_0+0xfbffc1d0>
 40022c8:	00800044 	movi	r2,1
 40022cc:	003e5006 	br	4001c10 <__alt_mem_onchip_memory2_0+0xfbffca50>
 40022d0:	d9402d17 	ldw	r5,180(sp)
 40022d4:	d9801e04 	addi	r6,sp,120
 40022d8:	9809883a 	mov	r4,r19
 40022dc:	4009bfc0 	call	4009bfc <__ssprint_r>
 40022e0:	103ba71e 	bne	r2,zero,4001180 <__alt_mem_onchip_memory2_0+0xfbffbfc0>
 40022e4:	d8c02017 	ldw	r3,128(sp)
 40022e8:	da000404 	addi	r8,sp,16
 40022ec:	d9003217 	ldw	r4,200(sp)
 40022f0:	d8802617 	ldw	r2,152(sp)
 40022f4:	d9403317 	ldw	r5,204(sp)
 40022f8:	8123883a 	add	r17,r16,r4
 40022fc:	11400216 	blt	r2,r5,4002308 <___svfprintf_internal_r+0x1524>
 4002300:	9100004c 	andi	r4,r18,1
 4002304:	20000d26 	beq	r4,zero,400233c <___svfprintf_internal_r+0x1558>
 4002308:	d9003817 	ldw	r4,224(sp)
 400230c:	d9403417 	ldw	r5,208(sp)
 4002310:	1907883a 	add	r3,r3,r4
 4002314:	d9001f17 	ldw	r4,124(sp)
 4002318:	41400015 	stw	r5,0(r8)
 400231c:	d9403817 	ldw	r5,224(sp)
 4002320:	21000044 	addi	r4,r4,1
 4002324:	d8c02015 	stw	r3,128(sp)
 4002328:	41400115 	stw	r5,4(r8)
 400232c:	d9001f15 	stw	r4,124(sp)
 4002330:	014001c4 	movi	r5,7
 4002334:	2901dc16 	blt	r5,r4,4002aa8 <___svfprintf_internal_r+0x1cc4>
 4002338:	42000204 	addi	r8,r8,8
 400233c:	d9003317 	ldw	r4,204(sp)
 4002340:	8121883a 	add	r16,r16,r4
 4002344:	2085c83a 	sub	r2,r4,r2
 4002348:	8461c83a 	sub	r16,r16,r17
 400234c:	1400010e 	bge	r2,r16,4002354 <___svfprintf_internal_r+0x1570>
 4002350:	1021883a 	mov	r16,r2
 4002354:	04000a0e 	bge	zero,r16,4002380 <___svfprintf_internal_r+0x159c>
 4002358:	d9001f17 	ldw	r4,124(sp)
 400235c:	1c07883a 	add	r3,r3,r16
 4002360:	44400015 	stw	r17,0(r8)
 4002364:	21000044 	addi	r4,r4,1
 4002368:	44000115 	stw	r16,4(r8)
 400236c:	d8c02015 	stw	r3,128(sp)
 4002370:	d9001f15 	stw	r4,124(sp)
 4002374:	014001c4 	movi	r5,7
 4002378:	2901e616 	blt	r5,r4,4002b14 <___svfprintf_internal_r+0x1d30>
 400237c:	42000204 	addi	r8,r8,8
 4002380:	8001f616 	blt	r16,zero,4002b5c <___svfprintf_internal_r+0x1d78>
 4002384:	1421c83a 	sub	r16,r2,r16
 4002388:	043cfa0e 	bge	zero,r16,4001774 <__alt_mem_onchip_memory2_0+0xfbffc5b4>
 400238c:	04400404 	movi	r17,16
 4002390:	d8801f17 	ldw	r2,124(sp)
 4002394:	8c3edd0e 	bge	r17,r16,4001f0c <__alt_mem_onchip_memory2_0+0xfbffcd4c>
 4002398:	01410074 	movhi	r5,1025
 400239c:	294f1d84 	addi	r5,r5,15478
 40023a0:	d9402c15 	stw	r5,176(sp)
 40023a4:	058001c4 	movi	r22,7
 40023a8:	dd002d17 	ldw	r20,180(sp)
 40023ac:	00000306 	br	40023bc <___svfprintf_internal_r+0x15d8>
 40023b0:	42000204 	addi	r8,r8,8
 40023b4:	843ffc04 	addi	r16,r16,-16
 40023b8:	8c3ed70e 	bge	r17,r16,4001f18 <__alt_mem_onchip_memory2_0+0xfbffcd58>
 40023bc:	18c00404 	addi	r3,r3,16
 40023c0:	10800044 	addi	r2,r2,1
 40023c4:	45400015 	stw	r21,0(r8)
 40023c8:	44400115 	stw	r17,4(r8)
 40023cc:	d8c02015 	stw	r3,128(sp)
 40023d0:	d8801f15 	stw	r2,124(sp)
 40023d4:	b0bff60e 	bge	r22,r2,40023b0 <__alt_mem_onchip_memory2_0+0xfbffd1f0>
 40023d8:	d9801e04 	addi	r6,sp,120
 40023dc:	a00b883a 	mov	r5,r20
 40023e0:	9809883a 	mov	r4,r19
 40023e4:	4009bfc0 	call	4009bfc <__ssprint_r>
 40023e8:	103b651e 	bne	r2,zero,4001180 <__alt_mem_onchip_memory2_0+0xfbffbfc0>
 40023ec:	d8c02017 	ldw	r3,128(sp)
 40023f0:	d8801f17 	ldw	r2,124(sp)
 40023f4:	da000404 	addi	r8,sp,16
 40023f8:	003fee06 	br	40023b4 <__alt_mem_onchip_memory2_0+0xfbffd1f4>
 40023fc:	9088703a 	and	r4,r18,r2
 4002400:	203e8d1e 	bne	r4,zero,4001e38 <__alt_mem_onchip_memory2_0+0xfbffcc78>
 4002404:	dc401f17 	ldw	r17,124(sp)
 4002408:	40800115 	stw	r2,4(r8)
 400240c:	44000015 	stw	r16,0(r8)
 4002410:	8c400044 	addi	r17,r17,1
 4002414:	d8c02015 	stw	r3,128(sp)
 4002418:	dc401f15 	stw	r17,124(sp)
 400241c:	008001c4 	movi	r2,7
 4002420:	147f7f16 	blt	r2,r17,4002220 <__alt_mem_onchip_memory2_0+0xfbffd060>
 4002424:	45800204 	addi	r22,r8,8
 4002428:	003eac06 	br	4001edc <__alt_mem_onchip_memory2_0+0xfbffcd1c>
 400242c:	d9402d17 	ldw	r5,180(sp)
 4002430:	d9801e04 	addi	r6,sp,120
 4002434:	9809883a 	mov	r4,r19
 4002438:	4009bfc0 	call	4009bfc <__ssprint_r>
 400243c:	103b501e 	bne	r2,zero,4001180 <__alt_mem_onchip_memory2_0+0xfbffbfc0>
 4002440:	d8c02017 	ldw	r3,128(sp)
 4002444:	dc401f17 	ldw	r17,124(sp)
 4002448:	da000404 	addi	r8,sp,16
 400244c:	003e8406 	br	4001e60 <__alt_mem_onchip_memory2_0+0xfbffcca0>
 4002450:	d9402d17 	ldw	r5,180(sp)
 4002454:	d9801e04 	addi	r6,sp,120
 4002458:	9809883a 	mov	r4,r19
 400245c:	4009bfc0 	call	4009bfc <__ssprint_r>
 4002460:	103b471e 	bne	r2,zero,4001180 <__alt_mem_onchip_memory2_0+0xfbffbfc0>
 4002464:	d8c02017 	ldw	r3,128(sp)
 4002468:	dc401f17 	ldw	r17,124(sp)
 400246c:	dd800404 	addi	r22,sp,16
 4002470:	003e8606 	br	4001e8c <__alt_mem_onchip_memory2_0+0xfbffcccc>
 4002474:	0029883a 	mov	r20,zero
 4002478:	a5000c04 	addi	r20,r20,48
 400247c:	dc001dc4 	addi	r16,sp,119
 4002480:	dd001dc5 	stb	r20,119(sp)
 4002484:	003f3806 	br	4002168 <__alt_mem_onchip_memory2_0+0xfbffcfa8>
 4002488:	d9402d17 	ldw	r5,180(sp)
 400248c:	d9801e04 	addi	r6,sp,120
 4002490:	9809883a 	mov	r4,r19
 4002494:	4009bfc0 	call	4009bfc <__ssprint_r>
 4002498:	103b391e 	bne	r2,zero,4001180 <__alt_mem_onchip_memory2_0+0xfbffbfc0>
 400249c:	d8c02017 	ldw	r3,128(sp)
 40024a0:	da000404 	addi	r8,sp,16
 40024a4:	003c7306 	br	4001674 <__alt_mem_onchip_memory2_0+0xfbffc4b4>
 40024a8:	d9003617 	ldw	r4,216(sp)
 40024ac:	d9403717 	ldw	r5,220(sp)
 40024b0:	da003e15 	stw	r8,248(sp)
 40024b4:	400991c0 	call	400991c <__fpclassifyd>
 40024b8:	da003e17 	ldw	r8,248(sp)
 40024bc:	1000bd1e 	bne	r2,zero,40027b4 <___svfprintf_internal_r+0x19d0>
 40024c0:	008011c4 	movi	r2,71
 40024c4:	14411e0e 	bge	r2,r17,4002940 <___svfprintf_internal_r+0x1b5c>
 40024c8:	04010074 	movhi	r16,1025
 40024cc:	840f1004 	addi	r16,r16,15424
 40024d0:	00c000c4 	movi	r3,3
 40024d4:	00bfdfc4 	movi	r2,-129
 40024d8:	d8c02915 	stw	r3,164(sp)
 40024dc:	90a4703a 	and	r18,r18,r2
 40024e0:	df002783 	ldbu	fp,158(sp)
 40024e4:	d8c02b15 	stw	r3,172(sp)
 40024e8:	d8002a15 	stw	zero,168(sp)
 40024ec:	d8003215 	stw	zero,200(sp)
 40024f0:	003bfa06 	br	40014dc <__alt_mem_onchip_memory2_0+0xfbffc31c>
 40024f4:	9080100c 	andi	r2,r18,64
 40024f8:	d8002785 	stb	zero,158(sp)
 40024fc:	10009426 	beq	r2,zero,4002750 <___svfprintf_internal_r+0x196c>
 4002500:	d9402e17 	ldw	r5,184(sp)
 4002504:	d8c02a17 	ldw	r3,168(sp)
 4002508:	002d883a 	mov	r22,zero
 400250c:	28800104 	addi	r2,r5,4
 4002510:	2d00000b 	ldhu	r20,0(r5)
 4002514:	183ec10e 	bge	r3,zero,400201c <__alt_mem_onchip_memory2_0+0xfbffce5c>
 4002518:	a586b03a 	or	r3,r20,r22
 400251c:	d8802e15 	stw	r2,184(sp)
 4002520:	183ec21e 	bne	r3,zero,400202c <__alt_mem_onchip_memory2_0+0xfbffce6c>
 4002524:	0039883a 	mov	fp,zero
 4002528:	0005883a 	mov	r2,zero
 400252c:	003db806 	br	4001c10 <__alt_mem_onchip_memory2_0+0xfbffca50>
 4002530:	d8c02e17 	ldw	r3,184(sp)
 4002534:	d9002e17 	ldw	r4,184(sp)
 4002538:	d9402e17 	ldw	r5,184(sp)
 400253c:	18c00017 	ldw	r3,0(r3)
 4002540:	21000117 	ldw	r4,4(r4)
 4002544:	29400204 	addi	r5,r5,8
 4002548:	d8c03615 	stw	r3,216(sp)
 400254c:	d9003715 	stw	r4,220(sp)
 4002550:	d9402e15 	stw	r5,184(sp)
 4002554:	003b5a06 	br	40012c0 <__alt_mem_onchip_memory2_0+0xfbffc100>
 4002558:	9080100c 	andi	r2,r18,64
 400255c:	10010726 	beq	r2,zero,400297c <___svfprintf_internal_r+0x1b98>
 4002560:	d8802e17 	ldw	r2,184(sp)
 4002564:	1500000f 	ldh	r20,0(r2)
 4002568:	10800104 	addi	r2,r2,4
 400256c:	d8802e15 	stw	r2,184(sp)
 4002570:	a02dd7fa 	srai	r22,r20,31
 4002574:	b005883a 	mov	r2,r22
 4002578:	003b7d06 	br	4001370 <__alt_mem_onchip_memory2_0+0xfbffc1b0>
 400257c:	9080100c 	andi	r2,r18,64
 4002580:	10010526 	beq	r2,zero,4002998 <___svfprintf_internal_r+0x1bb4>
 4002584:	d8c02e17 	ldw	r3,184(sp)
 4002588:	002d883a 	mov	r22,zero
 400258c:	1d00000b 	ldhu	r20,0(r3)
 4002590:	18c00104 	addi	r3,r3,4
 4002594:	d8c02e15 	stw	r3,184(sp)
 4002598:	003ce206 	br	4001924 <__alt_mem_onchip_memory2_0+0xfbffc764>
 400259c:	bc400007 	ldb	r17,0(r23)
 40025a0:	003a6506 	br	4000f38 <__alt_mem_onchip_memory2_0+0xfbffbd78>
 40025a4:	9080040c 	andi	r2,r18,16
 40025a8:	10010126 	beq	r2,zero,40029b0 <___svfprintf_internal_r+0x1bcc>
 40025ac:	d8c02e17 	ldw	r3,184(sp)
 40025b0:	d9002f17 	ldw	r4,188(sp)
 40025b4:	18800017 	ldw	r2,0(r3)
 40025b8:	18c00104 	addi	r3,r3,4
 40025bc:	d8c02e15 	stw	r3,184(sp)
 40025c0:	11000015 	stw	r4,0(r2)
 40025c4:	003a3206 	br	4000e90 <__alt_mem_onchip_memory2_0+0xfbffbcd0>
 40025c8:	d9002a17 	ldw	r4,168(sp)
 40025cc:	d8002785 	stb	zero,158(sp)
 40025d0:	203d8d16 	blt	r4,zero,4001c08 <__alt_mem_onchip_memory2_0+0xfbffca48>
 40025d4:	00bfdfc4 	movi	r2,-129
 40025d8:	90a4703a 	and	r18,r18,r2
 40025dc:	003ad506 	br	4001134 <__alt_mem_onchip_memory2_0+0xfbffbf74>
 40025e0:	01410074 	movhi	r5,1025
 40025e4:	294f1d84 	addi	r5,r5,15478
 40025e8:	d9402c15 	stw	r5,176(sp)
 40025ec:	d9402c17 	ldw	r5,176(sp)
 40025f0:	1c47883a 	add	r3,r3,r17
 40025f4:	10800044 	addi	r2,r2,1
 40025f8:	41400015 	stw	r5,0(r8)
 40025fc:	44400115 	stw	r17,4(r8)
 4002600:	d8c02015 	stw	r3,128(sp)
 4002604:	d8801f15 	stw	r2,124(sp)
 4002608:	010001c4 	movi	r4,7
 400260c:	20bf3016 	blt	r4,r2,40022d0 <__alt_mem_onchip_memory2_0+0xfbffd110>
 4002610:	42000204 	addi	r8,r8,8
 4002614:	003f3506 	br	40022ec <__alt_mem_onchip_memory2_0+0xfbffd12c>
 4002618:	01010074 	movhi	r4,1025
 400261c:	210f1d84 	addi	r4,r4,15478
 4002620:	d9002c15 	stw	r4,176(sp)
 4002624:	003c3c06 	br	4001718 <__alt_mem_onchip_memory2_0+0xfbffc558>
 4002628:	d9402d17 	ldw	r5,180(sp)
 400262c:	d9801e04 	addi	r6,sp,120
 4002630:	9809883a 	mov	r4,r19
 4002634:	4009bfc0 	call	4009bfc <__ssprint_r>
 4002638:	103ad11e 	bne	r2,zero,4001180 <__alt_mem_onchip_memory2_0+0xfbffbfc0>
 400263c:	d8c02017 	ldw	r3,128(sp)
 4002640:	da000404 	addi	r8,sp,16
 4002644:	003d9306 	br	4001c94 <__alt_mem_onchip_memory2_0+0xfbffcad4>
 4002648:	d8801f17 	ldw	r2,124(sp)
 400264c:	01410074 	movhi	r5,1025
 4002650:	01000044 	movi	r4,1
 4002654:	18c00044 	addi	r3,r3,1
 4002658:	10800044 	addi	r2,r2,1
 400265c:	294f1d04 	addi	r5,r5,15476
 4002660:	41000115 	stw	r4,4(r8)
 4002664:	41400015 	stw	r5,0(r8)
 4002668:	d8c02015 	stw	r3,128(sp)
 400266c:	d8801f15 	stw	r2,124(sp)
 4002670:	010001c4 	movi	r4,7
 4002674:	2080b516 	blt	r4,r2,400294c <___svfprintf_internal_r+0x1b68>
 4002678:	42000204 	addi	r8,r8,8
 400267c:	8800041e 	bne	r17,zero,4002690 <___svfprintf_internal_r+0x18ac>
 4002680:	d8803317 	ldw	r2,204(sp)
 4002684:	1000021e 	bne	r2,zero,4002690 <___svfprintf_internal_r+0x18ac>
 4002688:	9080004c 	andi	r2,r18,1
 400268c:	103c3926 	beq	r2,zero,4001774 <__alt_mem_onchip_memory2_0+0xfbffc5b4>
 4002690:	d9003817 	ldw	r4,224(sp)
 4002694:	d8801f17 	ldw	r2,124(sp)
 4002698:	d9403417 	ldw	r5,208(sp)
 400269c:	20c7883a 	add	r3,r4,r3
 40026a0:	10800044 	addi	r2,r2,1
 40026a4:	41000115 	stw	r4,4(r8)
 40026a8:	41400015 	stw	r5,0(r8)
 40026ac:	d8c02015 	stw	r3,128(sp)
 40026b0:	d8801f15 	stw	r2,124(sp)
 40026b4:	010001c4 	movi	r4,7
 40026b8:	20818016 	blt	r4,r2,4002cbc <___svfprintf_internal_r+0x1ed8>
 40026bc:	42000204 	addi	r8,r8,8
 40026c0:	0463c83a 	sub	r17,zero,r17
 40026c4:	0440cb0e 	bge	zero,r17,40029f4 <___svfprintf_internal_r+0x1c10>
 40026c8:	05800404 	movi	r22,16
 40026cc:	b440e80e 	bge	r22,r17,4002a70 <___svfprintf_internal_r+0x1c8c>
 40026d0:	01410074 	movhi	r5,1025
 40026d4:	294f1d84 	addi	r5,r5,15478
 40026d8:	d9402c15 	stw	r5,176(sp)
 40026dc:	070001c4 	movi	fp,7
 40026e0:	dd002d17 	ldw	r20,180(sp)
 40026e4:	00000306 	br	40026f4 <___svfprintf_internal_r+0x1910>
 40026e8:	42000204 	addi	r8,r8,8
 40026ec:	8c7ffc04 	addi	r17,r17,-16
 40026f0:	b440e20e 	bge	r22,r17,4002a7c <___svfprintf_internal_r+0x1c98>
 40026f4:	18c00404 	addi	r3,r3,16
 40026f8:	10800044 	addi	r2,r2,1
 40026fc:	45400015 	stw	r21,0(r8)
 4002700:	45800115 	stw	r22,4(r8)
 4002704:	d8c02015 	stw	r3,128(sp)
 4002708:	d8801f15 	stw	r2,124(sp)
 400270c:	e0bff60e 	bge	fp,r2,40026e8 <__alt_mem_onchip_memory2_0+0xfbffd528>
 4002710:	d9801e04 	addi	r6,sp,120
 4002714:	a00b883a 	mov	r5,r20
 4002718:	9809883a 	mov	r4,r19
 400271c:	4009bfc0 	call	4009bfc <__ssprint_r>
 4002720:	103a971e 	bne	r2,zero,4001180 <__alt_mem_onchip_memory2_0+0xfbffbfc0>
 4002724:	d8c02017 	ldw	r3,128(sp)
 4002728:	d8801f17 	ldw	r2,124(sp)
 400272c:	da000404 	addi	r8,sp,16
 4002730:	003fee06 	br	40026ec <__alt_mem_onchip_memory2_0+0xfbffd52c>
 4002734:	d9002e17 	ldw	r4,184(sp)
 4002738:	d9402a17 	ldw	r5,168(sp)
 400273c:	002d883a 	mov	r22,zero
 4002740:	20800104 	addi	r2,r4,4
 4002744:	25000017 	ldw	r20,0(r4)
 4002748:	283e7d0e 	bge	r5,zero,4002140 <__alt_mem_onchip_memory2_0+0xfbffcf80>
 400274c:	003eda06 	br	40022b8 <__alt_mem_onchip_memory2_0+0xfbffd0f8>
 4002750:	d9002e17 	ldw	r4,184(sp)
 4002754:	d9402a17 	ldw	r5,168(sp)
 4002758:	002d883a 	mov	r22,zero
 400275c:	20800104 	addi	r2,r4,4
 4002760:	25000017 	ldw	r20,0(r4)
 4002764:	283e2d0e 	bge	r5,zero,400201c <__alt_mem_onchip_memory2_0+0xfbffce5c>
 4002768:	003f6b06 	br	4002518 <__alt_mem_onchip_memory2_0+0xfbffd358>
 400276c:	d8c02e15 	stw	r3,184(sp)
 4002770:	0039883a 	mov	fp,zero
 4002774:	003ed206 	br	40022c0 <__alt_mem_onchip_memory2_0+0xfbffd100>
 4002778:	bc400043 	ldbu	r17,1(r23)
 400277c:	84000814 	ori	r16,r16,32
 4002780:	bdc00044 	addi	r23,r23,1
 4002784:	8c403fcc 	andi	r17,r17,255
 4002788:	8c40201c 	xori	r17,r17,128
 400278c:	8c7fe004 	addi	r17,r17,-128
 4002790:	0039e906 	br	4000f38 <__alt_mem_onchip_memory2_0+0xfbffbd78>
 4002794:	d9402d17 	ldw	r5,180(sp)
 4002798:	d9801e04 	addi	r6,sp,120
 400279c:	9809883a 	mov	r4,r19
 40027a0:	4009bfc0 	call	4009bfc <__ssprint_r>
 40027a4:	103a761e 	bne	r2,zero,4001180 <__alt_mem_onchip_memory2_0+0xfbffbfc0>
 40027a8:	d8c02017 	ldw	r3,128(sp)
 40027ac:	da000404 	addi	r8,sp,16
 40027b0:	003d4a06 	br	4001cdc <__alt_mem_onchip_memory2_0+0xfbffcb1c>
 40027b4:	d9002a17 	ldw	r4,168(sp)
 40027b8:	05bff7c4 	movi	r22,-33
 40027bc:	00bfffc4 	movi	r2,-1
 40027c0:	8dac703a 	and	r22,r17,r22
 40027c4:	20806a26 	beq	r4,r2,4002970 <___svfprintf_internal_r+0x1b8c>
 40027c8:	008011c4 	movi	r2,71
 40027cc:	b0813726 	beq	r22,r2,4002cac <___svfprintf_internal_r+0x1ec8>
 40027d0:	d9003717 	ldw	r4,220(sp)
 40027d4:	90c04014 	ori	r3,r18,256
 40027d8:	d8c02c15 	stw	r3,176(sp)
 40027dc:	20015d16 	blt	r4,zero,4002d54 <___svfprintf_internal_r+0x1f70>
 40027e0:	dd003717 	ldw	r20,220(sp)
 40027e4:	d8002905 	stb	zero,164(sp)
 40027e8:	00801984 	movi	r2,102
 40027ec:	88814026 	beq	r17,r2,4002cf0 <___svfprintf_internal_r+0x1f0c>
 40027f0:	00801184 	movi	r2,70
 40027f4:	88817126 	beq	r17,r2,4002dbc <___svfprintf_internal_r+0x1fd8>
 40027f8:	00801144 	movi	r2,69
 40027fc:	b0816226 	beq	r22,r2,4002d88 <___svfprintf_internal_r+0x1fa4>
 4002800:	d8c02a17 	ldw	r3,168(sp)
 4002804:	d8802104 	addi	r2,sp,132
 4002808:	d8800315 	stw	r2,12(sp)
 400280c:	d9403617 	ldw	r5,216(sp)
 4002810:	d8802504 	addi	r2,sp,148
 4002814:	d8800215 	stw	r2,8(sp)
 4002818:	d8802604 	addi	r2,sp,152
 400281c:	d8c00015 	stw	r3,0(sp)
 4002820:	d8800115 	stw	r2,4(sp)
 4002824:	01c00084 	movi	r7,2
 4002828:	a00d883a 	mov	r6,r20
 400282c:	9809883a 	mov	r4,r19
 4002830:	d8c03d15 	stw	r3,244(sp)
 4002834:	da003e15 	stw	r8,248(sp)
 4002838:	40057d00 	call	40057d0 <_dtoa_r>
 400283c:	1021883a 	mov	r16,r2
 4002840:	008019c4 	movi	r2,103
 4002844:	d8c03d17 	ldw	r3,244(sp)
 4002848:	da003e17 	ldw	r8,248(sp)
 400284c:	8880e726 	beq	r17,r2,4002bec <___svfprintf_internal_r+0x1e08>
 4002850:	008011c4 	movi	r2,71
 4002854:	8880d426 	beq	r17,r2,4002ba8 <___svfprintf_internal_r+0x1dc4>
 4002858:	80f9883a 	add	fp,r16,r3
 400285c:	d9003617 	ldw	r4,216(sp)
 4002860:	000d883a 	mov	r6,zero
 4002864:	000f883a 	mov	r7,zero
 4002868:	a00b883a 	mov	r5,r20
 400286c:	da003e15 	stw	r8,248(sp)
 4002870:	400fc800 	call	400fc80 <__eqdf2>
 4002874:	da003e17 	ldw	r8,248(sp)
 4002878:	1000e426 	beq	r2,zero,4002c0c <___svfprintf_internal_r+0x1e28>
 400287c:	d8802117 	ldw	r2,132(sp)
 4002880:	1700062e 	bgeu	r2,fp,400289c <___svfprintf_internal_r+0x1ab8>
 4002884:	01000c04 	movi	r4,48
 4002888:	10c00044 	addi	r3,r2,1
 400288c:	d8c02115 	stw	r3,132(sp)
 4002890:	11000005 	stb	r4,0(r2)
 4002894:	d8802117 	ldw	r2,132(sp)
 4002898:	173ffb36 	bltu	r2,fp,4002888 <__alt_mem_onchip_memory2_0+0xfbffd6c8>
 400289c:	1405c83a 	sub	r2,r2,r16
 40028a0:	d8803315 	stw	r2,204(sp)
 40028a4:	008011c4 	movi	r2,71
 40028a8:	b080c526 	beq	r22,r2,4002bc0 <___svfprintf_internal_r+0x1ddc>
 40028ac:	00801944 	movi	r2,101
 40028b0:	1441d80e 	bge	r2,r17,4003014 <___svfprintf_internal_r+0x2230>
 40028b4:	d8c02617 	ldw	r3,152(sp)
 40028b8:	00801984 	movi	r2,102
 40028bc:	d8c03215 	stw	r3,200(sp)
 40028c0:	88813426 	beq	r17,r2,4002d94 <___svfprintf_internal_r+0x1fb0>
 40028c4:	d8c03217 	ldw	r3,200(sp)
 40028c8:	d9003317 	ldw	r4,204(sp)
 40028cc:	19012516 	blt	r3,r4,4002d64 <___svfprintf_internal_r+0x1f80>
 40028d0:	9480004c 	andi	r18,r18,1
 40028d4:	9001841e 	bne	r18,zero,4002ee8 <___svfprintf_internal_r+0x2104>
 40028d8:	1805883a 	mov	r2,r3
 40028dc:	1801cb16 	blt	r3,zero,400300c <___svfprintf_internal_r+0x2228>
 40028e0:	d8c03217 	ldw	r3,200(sp)
 40028e4:	044019c4 	movi	r17,103
 40028e8:	d8c02b15 	stw	r3,172(sp)
 40028ec:	df002907 	ldb	fp,164(sp)
 40028f0:	e000a61e 	bne	fp,zero,4002b8c <___svfprintf_internal_r+0x1da8>
 40028f4:	df002783 	ldbu	fp,158(sp)
 40028f8:	d8802915 	stw	r2,164(sp)
 40028fc:	dc802c17 	ldw	r18,176(sp)
 4002900:	d8002a15 	stw	zero,168(sp)
 4002904:	003af506 	br	40014dc <__alt_mem_onchip_memory2_0+0xfbffc31c>
 4002908:	04010074 	movhi	r16,1025
 400290c:	840f0d04 	addi	r16,r16,15412
 4002910:	003a7e06 	br	400130c <__alt_mem_onchip_memory2_0+0xfbffc14c>
 4002914:	d9003917 	ldw	r4,228(sp)
 4002918:	04001004 	movi	r16,64
 400291c:	800b883a 	mov	r5,r16
 4002920:	4007d040 	call	4007d04 <_malloc_r>
 4002924:	d9002d17 	ldw	r4,180(sp)
 4002928:	20800015 	stw	r2,0(r4)
 400292c:	20800415 	stw	r2,16(r4)
 4002930:	1001d026 	beq	r2,zero,4003074 <___svfprintf_internal_r+0x2290>
 4002934:	d8802d17 	ldw	r2,180(sp)
 4002938:	14000515 	stw	r16,20(r2)
 400293c:	00394406 	br	4000e50 <__alt_mem_onchip_memory2_0+0xfbffbc90>
 4002940:	04010074 	movhi	r16,1025
 4002944:	840f0f04 	addi	r16,r16,15420
 4002948:	003ee106 	br	40024d0 <__alt_mem_onchip_memory2_0+0xfbffd310>
 400294c:	d9402d17 	ldw	r5,180(sp)
 4002950:	d9801e04 	addi	r6,sp,120
 4002954:	9809883a 	mov	r4,r19
 4002958:	4009bfc0 	call	4009bfc <__ssprint_r>
 400295c:	103a081e 	bne	r2,zero,4001180 <__alt_mem_onchip_memory2_0+0xfbffbfc0>
 4002960:	dc402617 	ldw	r17,152(sp)
 4002964:	d8c02017 	ldw	r3,128(sp)
 4002968:	da000404 	addi	r8,sp,16
 400296c:	003f4306 	br	400267c <__alt_mem_onchip_memory2_0+0xfbffd4bc>
 4002970:	01400184 	movi	r5,6
 4002974:	d9402a15 	stw	r5,168(sp)
 4002978:	003f9506 	br	40027d0 <__alt_mem_onchip_memory2_0+0xfbffd610>
 400297c:	d8c02e17 	ldw	r3,184(sp)
 4002980:	1d000017 	ldw	r20,0(r3)
 4002984:	18c00104 	addi	r3,r3,4
 4002988:	d8c02e15 	stw	r3,184(sp)
 400298c:	a02dd7fa 	srai	r22,r20,31
 4002990:	b005883a 	mov	r2,r22
 4002994:	003a7606 	br	4001370 <__alt_mem_onchip_memory2_0+0xfbffc1b0>
 4002998:	d9002e17 	ldw	r4,184(sp)
 400299c:	002d883a 	mov	r22,zero
 40029a0:	25000017 	ldw	r20,0(r4)
 40029a4:	21000104 	addi	r4,r4,4
 40029a8:	d9002e15 	stw	r4,184(sp)
 40029ac:	003bdd06 	br	4001924 <__alt_mem_onchip_memory2_0+0xfbffc764>
 40029b0:	9480100c 	andi	r18,r18,64
 40029b4:	90006e26 	beq	r18,zero,4002b70 <___svfprintf_internal_r+0x1d8c>
 40029b8:	d9402e17 	ldw	r5,184(sp)
 40029bc:	d8c02f17 	ldw	r3,188(sp)
 40029c0:	28800017 	ldw	r2,0(r5)
 40029c4:	29400104 	addi	r5,r5,4
 40029c8:	d9402e15 	stw	r5,184(sp)
 40029cc:	10c0000d 	sth	r3,0(r2)
 40029d0:	00392f06 	br	4000e90 <__alt_mem_onchip_memory2_0+0xfbffbcd0>
 40029d4:	d9402d17 	ldw	r5,180(sp)
 40029d8:	d9801e04 	addi	r6,sp,120
 40029dc:	9809883a 	mov	r4,r19
 40029e0:	4009bfc0 	call	4009bfc <__ssprint_r>
 40029e4:	1039e61e 	bne	r2,zero,4001180 <__alt_mem_onchip_memory2_0+0xfbffbfc0>
 40029e8:	d8c02017 	ldw	r3,128(sp)
 40029ec:	d8801f17 	ldw	r2,124(sp)
 40029f0:	da000404 	addi	r8,sp,16
 40029f4:	d9403317 	ldw	r5,204(sp)
 40029f8:	10800044 	addi	r2,r2,1
 40029fc:	44000015 	stw	r16,0(r8)
 4002a00:	28c7883a 	add	r3,r5,r3
 4002a04:	003b5506 	br	400175c <__alt_mem_onchip_memory2_0+0xfbffc59c>
 4002a08:	8009883a 	mov	r4,r16
 4002a0c:	df003e15 	stw	fp,248(sp)
 4002a10:	4000d4c0 	call	4000d4c <strlen>
 4002a14:	d8802b15 	stw	r2,172(sp)
 4002a18:	da003e17 	ldw	r8,248(sp)
 4002a1c:	103c160e 	bge	r2,zero,4001a78 <__alt_mem_onchip_memory2_0+0xfbffc8b8>
 4002a20:	0005883a 	mov	r2,zero
 4002a24:	003c1406 	br	4001a78 <__alt_mem_onchip_memory2_0+0xfbffc8b8>
 4002a28:	00bfffc4 	movi	r2,-1
 4002a2c:	0039d906 	br	4001194 <__alt_mem_onchip_memory2_0+0xfbffbfd4>
 4002a30:	01010074 	movhi	r4,1025
 4002a34:	210f2184 	addi	r4,r4,15494
 4002a38:	d9003515 	stw	r4,212(sp)
 4002a3c:	003ae406 	br	40015d0 <__alt_mem_onchip_memory2_0+0xfbffc410>
 4002a40:	013fffc4 	movi	r4,-1
 4002a44:	0039fa06 	br	4001230 <__alt_mem_onchip_memory2_0+0xfbffc070>
 4002a48:	d9402d17 	ldw	r5,180(sp)
 4002a4c:	d9801e04 	addi	r6,sp,120
 4002a50:	9809883a 	mov	r4,r19
 4002a54:	4009bfc0 	call	4009bfc <__ssprint_r>
 4002a58:	1039c91e 	bne	r2,zero,4001180 <__alt_mem_onchip_memory2_0+0xfbffbfc0>
 4002a5c:	d8c02017 	ldw	r3,128(sp)
 4002a60:	da000404 	addi	r8,sp,16
 4002a64:	003d8406 	br	4002078 <__alt_mem_onchip_memory2_0+0xfbffceb8>
 4002a68:	0023883a 	mov	r17,zero
 4002a6c:	003d8306 	br	400207c <__alt_mem_onchip_memory2_0+0xfbffcebc>
 4002a70:	01010074 	movhi	r4,1025
 4002a74:	210f1d84 	addi	r4,r4,15478
 4002a78:	d9002c15 	stw	r4,176(sp)
 4002a7c:	d9002c17 	ldw	r4,176(sp)
 4002a80:	1c47883a 	add	r3,r3,r17
 4002a84:	10800044 	addi	r2,r2,1
 4002a88:	41000015 	stw	r4,0(r8)
 4002a8c:	44400115 	stw	r17,4(r8)
 4002a90:	d8c02015 	stw	r3,128(sp)
 4002a94:	d8801f15 	stw	r2,124(sp)
 4002a98:	010001c4 	movi	r4,7
 4002a9c:	20bfcd16 	blt	r4,r2,40029d4 <__alt_mem_onchip_memory2_0+0xfbffd814>
 4002aa0:	42000204 	addi	r8,r8,8
 4002aa4:	003fd306 	br	40029f4 <__alt_mem_onchip_memory2_0+0xfbffd834>
 4002aa8:	d9402d17 	ldw	r5,180(sp)
 4002aac:	d9801e04 	addi	r6,sp,120
 4002ab0:	9809883a 	mov	r4,r19
 4002ab4:	4009bfc0 	call	4009bfc <__ssprint_r>
 4002ab8:	1039b11e 	bne	r2,zero,4001180 <__alt_mem_onchip_memory2_0+0xfbffbfc0>
 4002abc:	d8802617 	ldw	r2,152(sp)
 4002ac0:	d8c02017 	ldw	r3,128(sp)
 4002ac4:	da000404 	addi	r8,sp,16
 4002ac8:	003e1c06 	br	400233c <__alt_mem_onchip_memory2_0+0xfbffd17c>
 4002acc:	d8802a17 	ldw	r2,168(sp)
 4002ad0:	00c00184 	movi	r3,6
 4002ad4:	1880012e 	bgeu	r3,r2,4002adc <___svfprintf_internal_r+0x1cf8>
 4002ad8:	1805883a 	mov	r2,r3
 4002adc:	d8802b15 	stw	r2,172(sp)
 4002ae0:	1000f316 	blt	r2,zero,4002eb0 <___svfprintf_internal_r+0x20cc>
 4002ae4:	04010074 	movhi	r16,1025
 4002ae8:	d8802915 	stw	r2,164(sp)
 4002aec:	dd002e15 	stw	r20,184(sp)
 4002af0:	d8002a15 	stw	zero,168(sp)
 4002af4:	d8003215 	stw	zero,200(sp)
 4002af8:	840f1b04 	addi	r16,r16,15468
 4002afc:	0039883a 	mov	fp,zero
 4002b00:	003a7d06 	br	40014f8 <__alt_mem_onchip_memory2_0+0xfbffc338>
 4002b04:	01010074 	movhi	r4,1025
 4002b08:	210f2184 	addi	r4,r4,15494
 4002b0c:	d9003515 	stw	r4,212(sp)
 4002b10:	003b3d06 	br	4001808 <__alt_mem_onchip_memory2_0+0xfbffc648>
 4002b14:	d9402d17 	ldw	r5,180(sp)
 4002b18:	d9801e04 	addi	r6,sp,120
 4002b1c:	9809883a 	mov	r4,r19
 4002b20:	4009bfc0 	call	4009bfc <__ssprint_r>
 4002b24:	1039961e 	bne	r2,zero,4001180 <__alt_mem_onchip_memory2_0+0xfbffbfc0>
 4002b28:	d8802617 	ldw	r2,152(sp)
 4002b2c:	d9403317 	ldw	r5,204(sp)
 4002b30:	d8c02017 	ldw	r3,128(sp)
 4002b34:	da000404 	addi	r8,sp,16
 4002b38:	2885c83a 	sub	r2,r5,r2
 4002b3c:	003e1006 	br	4002380 <__alt_mem_onchip_memory2_0+0xfbffd1c0>
 4002b40:	00800044 	movi	r2,1
 4002b44:	10803fcc 	andi	r2,r2,255
 4002b48:	00c00044 	movi	r3,1
 4002b4c:	10fa1026 	beq	r2,r3,4001390 <__alt_mem_onchip_memory2_0+0xfbffc1d0>
 4002b50:	00c00084 	movi	r3,2
 4002b54:	10fb8226 	beq	r2,r3,4001960 <__alt_mem_onchip_memory2_0+0xfbffc7a0>
 4002b58:	003a4206 	br	4001464 <__alt_mem_onchip_memory2_0+0xfbffc2a4>
 4002b5c:	0021883a 	mov	r16,zero
 4002b60:	003e0806 	br	4002384 <__alt_mem_onchip_memory2_0+0xfbffd1c4>
 4002b64:	07000b44 	movi	fp,45
 4002b68:	df002785 	stb	fp,158(sp)
 4002b6c:	0039e306 	br	40012fc <__alt_mem_onchip_memory2_0+0xfbffc13c>
 4002b70:	d9002e17 	ldw	r4,184(sp)
 4002b74:	d9402f17 	ldw	r5,188(sp)
 4002b78:	20800017 	ldw	r2,0(r4)
 4002b7c:	21000104 	addi	r4,r4,4
 4002b80:	d9002e15 	stw	r4,184(sp)
 4002b84:	11400015 	stw	r5,0(r2)
 4002b88:	0038c106 	br	4000e90 <__alt_mem_onchip_memory2_0+0xfbffbcd0>
 4002b8c:	00c00b44 	movi	r3,45
 4002b90:	d8c02785 	stb	r3,158(sp)
 4002b94:	d8802915 	stw	r2,164(sp)
 4002b98:	dc802c17 	ldw	r18,176(sp)
 4002b9c:	d8002a15 	stw	zero,168(sp)
 4002ba0:	07000b44 	movi	fp,45
 4002ba4:	003a5106 	br	40014ec <__alt_mem_onchip_memory2_0+0xfbffc32c>
 4002ba8:	9080004c 	andi	r2,r18,1
 4002bac:	1000941e 	bne	r2,zero,4002e00 <___svfprintf_internal_r+0x201c>
 4002bb0:	d8802117 	ldw	r2,132(sp)
 4002bb4:	1405c83a 	sub	r2,r2,r16
 4002bb8:	d8803315 	stw	r2,204(sp)
 4002bbc:	b441151e 	bne	r22,r17,4003014 <___svfprintf_internal_r+0x2230>
 4002bc0:	dd802617 	ldw	r22,152(sp)
 4002bc4:	00bfff44 	movi	r2,-3
 4002bc8:	b0801a16 	blt	r22,r2,4002c34 <___svfprintf_internal_r+0x1e50>
 4002bcc:	d9402a17 	ldw	r5,168(sp)
 4002bd0:	2d801816 	blt	r5,r22,4002c34 <___svfprintf_internal_r+0x1e50>
 4002bd4:	dd803215 	stw	r22,200(sp)
 4002bd8:	003f3a06 	br	40028c4 <__alt_mem_onchip_memory2_0+0xfbffd704>
 4002bdc:	1025883a 	mov	r18,r2
 4002be0:	0039883a 	mov	fp,zero
 4002be4:	00800084 	movi	r2,2
 4002be8:	003fd606 	br	4002b44 <__alt_mem_onchip_memory2_0+0xfbffd984>
 4002bec:	9080004c 	andi	r2,r18,1
 4002bf0:	103f191e 	bne	r2,zero,4002858 <__alt_mem_onchip_memory2_0+0xfbffd698>
 4002bf4:	d8802117 	ldw	r2,132(sp)
 4002bf8:	003f2806 	br	400289c <__alt_mem_onchip_memory2_0+0xfbffd6dc>
 4002bfc:	01010074 	movhi	r4,1025
 4002c00:	210f1d84 	addi	r4,r4,15478
 4002c04:	d9002c15 	stw	r4,176(sp)
 4002c08:	003c7c06 	br	4001dfc <__alt_mem_onchip_memory2_0+0xfbffcc3c>
 4002c0c:	e005883a 	mov	r2,fp
 4002c10:	003f2206 	br	400289c <__alt_mem_onchip_memory2_0+0xfbffd6dc>
 4002c14:	d9002a17 	ldw	r4,168(sp)
 4002c18:	df002783 	ldbu	fp,158(sp)
 4002c1c:	dd002e15 	stw	r20,184(sp)
 4002c20:	d9002915 	stw	r4,164(sp)
 4002c24:	d9002b15 	stw	r4,172(sp)
 4002c28:	d8002a15 	stw	zero,168(sp)
 4002c2c:	d8003215 	stw	zero,200(sp)
 4002c30:	003a2a06 	br	40014dc <__alt_mem_onchip_memory2_0+0xfbffc31c>
 4002c34:	8c7fff84 	addi	r17,r17,-2
 4002c38:	b5bfffc4 	addi	r22,r22,-1
 4002c3c:	dd802615 	stw	r22,152(sp)
 4002c40:	dc4022c5 	stb	r17,139(sp)
 4002c44:	b000c316 	blt	r22,zero,4002f54 <___svfprintf_internal_r+0x2170>
 4002c48:	00800ac4 	movi	r2,43
 4002c4c:	d8802305 	stb	r2,140(sp)
 4002c50:	00800244 	movi	r2,9
 4002c54:	15806e16 	blt	r2,r22,4002e10 <___svfprintf_internal_r+0x202c>
 4002c58:	00800c04 	movi	r2,48
 4002c5c:	b5800c04 	addi	r22,r22,48
 4002c60:	d8802345 	stb	r2,141(sp)
 4002c64:	dd802385 	stb	r22,142(sp)
 4002c68:	d88023c4 	addi	r2,sp,143
 4002c6c:	df0022c4 	addi	fp,sp,139
 4002c70:	d8c03317 	ldw	r3,204(sp)
 4002c74:	1739c83a 	sub	fp,r2,fp
 4002c78:	d9003317 	ldw	r4,204(sp)
 4002c7c:	e0c7883a 	add	r3,fp,r3
 4002c80:	df003b15 	stw	fp,236(sp)
 4002c84:	d8c02b15 	stw	r3,172(sp)
 4002c88:	00800044 	movi	r2,1
 4002c8c:	1100b70e 	bge	r2,r4,4002f6c <___svfprintf_internal_r+0x2188>
 4002c90:	d8c02b17 	ldw	r3,172(sp)
 4002c94:	18c00044 	addi	r3,r3,1
 4002c98:	d8c02b15 	stw	r3,172(sp)
 4002c9c:	1805883a 	mov	r2,r3
 4002ca0:	1800b016 	blt	r3,zero,4002f64 <___svfprintf_internal_r+0x2180>
 4002ca4:	d8003215 	stw	zero,200(sp)
 4002ca8:	003f1006 	br	40028ec <__alt_mem_onchip_memory2_0+0xfbffd72c>
 4002cac:	d8802a17 	ldw	r2,168(sp)
 4002cb0:	103ec71e 	bne	r2,zero,40027d0 <__alt_mem_onchip_memory2_0+0xfbffd610>
 4002cb4:	dc002a15 	stw	r16,168(sp)
 4002cb8:	003ec506 	br	40027d0 <__alt_mem_onchip_memory2_0+0xfbffd610>
 4002cbc:	d9402d17 	ldw	r5,180(sp)
 4002cc0:	d9801e04 	addi	r6,sp,120
 4002cc4:	9809883a 	mov	r4,r19
 4002cc8:	4009bfc0 	call	4009bfc <__ssprint_r>
 4002ccc:	10392c1e 	bne	r2,zero,4001180 <__alt_mem_onchip_memory2_0+0xfbffbfc0>
 4002cd0:	dc402617 	ldw	r17,152(sp)
 4002cd4:	d8c02017 	ldw	r3,128(sp)
 4002cd8:	d8801f17 	ldw	r2,124(sp)
 4002cdc:	da000404 	addi	r8,sp,16
 4002ce0:	003e7706 	br	40026c0 <__alt_mem_onchip_memory2_0+0xfbffd500>
 4002ce4:	182f883a 	mov	r23,r3
 4002ce8:	d8002a15 	stw	zero,168(sp)
 4002cec:	00389306 	br	4000f3c <__alt_mem_onchip_memory2_0+0xfbffbd7c>
 4002cf0:	d8c02a17 	ldw	r3,168(sp)
 4002cf4:	d8802104 	addi	r2,sp,132
 4002cf8:	d8800315 	stw	r2,12(sp)
 4002cfc:	d9403617 	ldw	r5,216(sp)
 4002d00:	d8802504 	addi	r2,sp,148
 4002d04:	d8800215 	stw	r2,8(sp)
 4002d08:	d8802604 	addi	r2,sp,152
 4002d0c:	d8c00015 	stw	r3,0(sp)
 4002d10:	9809883a 	mov	r4,r19
 4002d14:	d8800115 	stw	r2,4(sp)
 4002d18:	01c000c4 	movi	r7,3
 4002d1c:	a00d883a 	mov	r6,r20
 4002d20:	da003e15 	stw	r8,248(sp)
 4002d24:	40057d00 	call	40057d0 <_dtoa_r>
 4002d28:	d9002a17 	ldw	r4,168(sp)
 4002d2c:	da003e17 	ldw	r8,248(sp)
 4002d30:	1021883a 	mov	r16,r2
 4002d34:	1139883a 	add	fp,r2,r4
 4002d38:	2007883a 	mov	r3,r4
 4002d3c:	81000007 	ldb	r4,0(r16)
 4002d40:	00800c04 	movi	r2,48
 4002d44:	20806f26 	beq	r4,r2,4002f04 <___svfprintf_internal_r+0x2120>
 4002d48:	d8c02617 	ldw	r3,152(sp)
 4002d4c:	e0f9883a 	add	fp,fp,r3
 4002d50:	003ec206 	br	400285c <__alt_mem_onchip_memory2_0+0xfbffd69c>
 4002d54:	00c00b44 	movi	r3,45
 4002d58:	2520003c 	xorhi	r20,r4,32768
 4002d5c:	d8c02905 	stb	r3,164(sp)
 4002d60:	003ea106 	br	40027e8 <__alt_mem_onchip_memory2_0+0xfbffd628>
 4002d64:	d8c03217 	ldw	r3,200(sp)
 4002d68:	00c0890e 	bge	zero,r3,4002f90 <___svfprintf_internal_r+0x21ac>
 4002d6c:	00800044 	movi	r2,1
 4002d70:	d9003317 	ldw	r4,204(sp)
 4002d74:	1105883a 	add	r2,r2,r4
 4002d78:	d8802b15 	stw	r2,172(sp)
 4002d7c:	10005f16 	blt	r2,zero,4002efc <___svfprintf_internal_r+0x2118>
 4002d80:	044019c4 	movi	r17,103
 4002d84:	003ed906 	br	40028ec <__alt_mem_onchip_memory2_0+0xfbffd72c>
 4002d88:	d9002a17 	ldw	r4,168(sp)
 4002d8c:	20c00044 	addi	r3,r4,1
 4002d90:	003e9c06 	br	4002804 <__alt_mem_onchip_memory2_0+0xfbffd644>
 4002d94:	d9002a17 	ldw	r4,168(sp)
 4002d98:	00c0680e 	bge	zero,r3,4002f3c <___svfprintf_internal_r+0x2158>
 4002d9c:	2000461e 	bne	r4,zero,4002eb8 <___svfprintf_internal_r+0x20d4>
 4002da0:	9480004c 	andi	r18,r18,1
 4002da4:	9000441e 	bne	r18,zero,4002eb8 <___svfprintf_internal_r+0x20d4>
 4002da8:	1805883a 	mov	r2,r3
 4002dac:	1800a116 	blt	r3,zero,4003034 <___svfprintf_internal_r+0x2250>
 4002db0:	d8c03217 	ldw	r3,200(sp)
 4002db4:	d8c02b15 	stw	r3,172(sp)
 4002db8:	003ecc06 	br	40028ec <__alt_mem_onchip_memory2_0+0xfbffd72c>
 4002dbc:	d9402a17 	ldw	r5,168(sp)
 4002dc0:	d8802104 	addi	r2,sp,132
 4002dc4:	d8800315 	stw	r2,12(sp)
 4002dc8:	d9400015 	stw	r5,0(sp)
 4002dcc:	d8802504 	addi	r2,sp,148
 4002dd0:	d9403617 	ldw	r5,216(sp)
 4002dd4:	d8800215 	stw	r2,8(sp)
 4002dd8:	d8802604 	addi	r2,sp,152
 4002ddc:	d8800115 	stw	r2,4(sp)
 4002de0:	01c000c4 	movi	r7,3
 4002de4:	a00d883a 	mov	r6,r20
 4002de8:	9809883a 	mov	r4,r19
 4002dec:	da003e15 	stw	r8,248(sp)
 4002df0:	40057d00 	call	40057d0 <_dtoa_r>
 4002df4:	d8c02a17 	ldw	r3,168(sp)
 4002df8:	da003e17 	ldw	r8,248(sp)
 4002dfc:	1021883a 	mov	r16,r2
 4002e00:	00801184 	movi	r2,70
 4002e04:	80f9883a 	add	fp,r16,r3
 4002e08:	88bfcc26 	beq	r17,r2,4002d3c <__alt_mem_onchip_memory2_0+0xfbffdb7c>
 4002e0c:	003e9306 	br	400285c <__alt_mem_onchip_memory2_0+0xfbffd69c>
 4002e10:	df0022c4 	addi	fp,sp,139
 4002e14:	dc002a15 	stw	r16,168(sp)
 4002e18:	9829883a 	mov	r20,r19
 4002e1c:	e021883a 	mov	r16,fp
 4002e20:	4027883a 	mov	r19,r8
 4002e24:	b009883a 	mov	r4,r22
 4002e28:	01400284 	movi	r5,10
 4002e2c:	4000a480 	call	4000a48 <__modsi3>
 4002e30:	10800c04 	addi	r2,r2,48
 4002e34:	843fffc4 	addi	r16,r16,-1
 4002e38:	b009883a 	mov	r4,r22
 4002e3c:	01400284 	movi	r5,10
 4002e40:	80800005 	stb	r2,0(r16)
 4002e44:	40009c40 	call	40009c4 <__divsi3>
 4002e48:	102d883a 	mov	r22,r2
 4002e4c:	00800244 	movi	r2,9
 4002e50:	15bff416 	blt	r2,r22,4002e24 <__alt_mem_onchip_memory2_0+0xfbffdc64>
 4002e54:	9811883a 	mov	r8,r19
 4002e58:	b0800c04 	addi	r2,r22,48
 4002e5c:	a027883a 	mov	r19,r20
 4002e60:	8029883a 	mov	r20,r16
 4002e64:	a17fffc4 	addi	r5,r20,-1
 4002e68:	a0bfffc5 	stb	r2,-1(r20)
 4002e6c:	dc002a17 	ldw	r16,168(sp)
 4002e70:	2f00782e 	bgeu	r5,fp,4003054 <___svfprintf_internal_r+0x2270>
 4002e74:	d9c02384 	addi	r7,sp,142
 4002e78:	3d0fc83a 	sub	r7,r7,r20
 4002e7c:	d9002344 	addi	r4,sp,141
 4002e80:	e1cf883a 	add	r7,fp,r7
 4002e84:	00000106 	br	4002e8c <___svfprintf_internal_r+0x20a8>
 4002e88:	28800003 	ldbu	r2,0(r5)
 4002e8c:	20800005 	stb	r2,0(r4)
 4002e90:	21000044 	addi	r4,r4,1
 4002e94:	29400044 	addi	r5,r5,1
 4002e98:	21fffb1e 	bne	r4,r7,4002e88 <__alt_mem_onchip_memory2_0+0xfbffdcc8>
 4002e9c:	d8802304 	addi	r2,sp,140
 4002ea0:	1505c83a 	sub	r2,r2,r20
 4002ea4:	d8c02344 	addi	r3,sp,141
 4002ea8:	1885883a 	add	r2,r3,r2
 4002eac:	003f7006 	br	4002c70 <__alt_mem_onchip_memory2_0+0xfbffdab0>
 4002eb0:	0005883a 	mov	r2,zero
 4002eb4:	003f0b06 	br	4002ae4 <__alt_mem_onchip_memory2_0+0xfbffd924>
 4002eb8:	d9002a17 	ldw	r4,168(sp)
 4002ebc:	d8c03217 	ldw	r3,200(sp)
 4002ec0:	20800044 	addi	r2,r4,1
 4002ec4:	1885883a 	add	r2,r3,r2
 4002ec8:	d8802b15 	stw	r2,172(sp)
 4002ecc:	103e870e 	bge	r2,zero,40028ec <__alt_mem_onchip_memory2_0+0xfbffd72c>
 4002ed0:	0005883a 	mov	r2,zero
 4002ed4:	003e8506 	br	40028ec <__alt_mem_onchip_memory2_0+0xfbffd72c>
 4002ed8:	01010074 	movhi	r4,1025
 4002edc:	210f1d84 	addi	r4,r4,15478
 4002ee0:	d9002c15 	stw	r4,176(sp)
 4002ee4:	003cc506 	br	40021fc <__alt_mem_onchip_memory2_0+0xfbffd03c>
 4002ee8:	d8c03217 	ldw	r3,200(sp)
 4002eec:	18c00044 	addi	r3,r3,1
 4002ef0:	d8c02b15 	stw	r3,172(sp)
 4002ef4:	1805883a 	mov	r2,r3
 4002ef8:	183fa10e 	bge	r3,zero,4002d80 <__alt_mem_onchip_memory2_0+0xfbffdbc0>
 4002efc:	0005883a 	mov	r2,zero
 4002f00:	003f9f06 	br	4002d80 <__alt_mem_onchip_memory2_0+0xfbffdbc0>
 4002f04:	d9003617 	ldw	r4,216(sp)
 4002f08:	000d883a 	mov	r6,zero
 4002f0c:	000f883a 	mov	r7,zero
 4002f10:	a00b883a 	mov	r5,r20
 4002f14:	d8c03d15 	stw	r3,244(sp)
 4002f18:	da003e15 	stw	r8,248(sp)
 4002f1c:	400fc800 	call	400fc80 <__eqdf2>
 4002f20:	d8c03d17 	ldw	r3,244(sp)
 4002f24:	da003e17 	ldw	r8,248(sp)
 4002f28:	103f8726 	beq	r2,zero,4002d48 <__alt_mem_onchip_memory2_0+0xfbffdb88>
 4002f2c:	00800044 	movi	r2,1
 4002f30:	10c7c83a 	sub	r3,r2,r3
 4002f34:	d8c02615 	stw	r3,152(sp)
 4002f38:	003f8406 	br	4002d4c <__alt_mem_onchip_memory2_0+0xfbffdb8c>
 4002f3c:	20000e1e 	bne	r4,zero,4002f78 <___svfprintf_internal_r+0x2194>
 4002f40:	9480004c 	andi	r18,r18,1
 4002f44:	90000c1e 	bne	r18,zero,4002f78 <___svfprintf_internal_r+0x2194>
 4002f48:	00800044 	movi	r2,1
 4002f4c:	d8802b15 	stw	r2,172(sp)
 4002f50:	003e6606 	br	40028ec <__alt_mem_onchip_memory2_0+0xfbffd72c>
 4002f54:	00800b44 	movi	r2,45
 4002f58:	05adc83a 	sub	r22,zero,r22
 4002f5c:	d8802305 	stb	r2,140(sp)
 4002f60:	003f3b06 	br	4002c50 <__alt_mem_onchip_memory2_0+0xfbffda90>
 4002f64:	0005883a 	mov	r2,zero
 4002f68:	003f4e06 	br	4002ca4 <__alt_mem_onchip_memory2_0+0xfbffdae4>
 4002f6c:	90a4703a 	and	r18,r18,r2
 4002f70:	903f4a26 	beq	r18,zero,4002c9c <__alt_mem_onchip_memory2_0+0xfbffdadc>
 4002f74:	003f4606 	br	4002c90 <__alt_mem_onchip_memory2_0+0xfbffdad0>
 4002f78:	d8c02a17 	ldw	r3,168(sp)
 4002f7c:	18c00084 	addi	r3,r3,2
 4002f80:	d8c02b15 	stw	r3,172(sp)
 4002f84:	1805883a 	mov	r2,r3
 4002f88:	183e580e 	bge	r3,zero,40028ec <__alt_mem_onchip_memory2_0+0xfbffd72c>
 4002f8c:	003fd006 	br	4002ed0 <__alt_mem_onchip_memory2_0+0xfbffdd10>
 4002f90:	00800084 	movi	r2,2
 4002f94:	10c5c83a 	sub	r2,r2,r3
 4002f98:	003f7506 	br	4002d70 <__alt_mem_onchip_memory2_0+0xfbffdbb0>
 4002f9c:	d9402e17 	ldw	r5,184(sp)
 4002fa0:	d9002e17 	ldw	r4,184(sp)
 4002fa4:	bc400043 	ldbu	r17,1(r23)
 4002fa8:	29400017 	ldw	r5,0(r5)
 4002fac:	20800104 	addi	r2,r4,4
 4002fb0:	d8802e15 	stw	r2,184(sp)
 4002fb4:	d9402a15 	stw	r5,168(sp)
 4002fb8:	182f883a 	mov	r23,r3
 4002fbc:	283df10e 	bge	r5,zero,4002784 <__alt_mem_onchip_memory2_0+0xfbffd5c4>
 4002fc0:	8c403fcc 	andi	r17,r17,255
 4002fc4:	017fffc4 	movi	r5,-1
 4002fc8:	8c40201c 	xori	r17,r17,128
 4002fcc:	d9402a15 	stw	r5,168(sp)
 4002fd0:	8c7fe004 	addi	r17,r17,-128
 4002fd4:	0037d806 	br	4000f38 <__alt_mem_onchip_memory2_0+0xfbffbd78>
 4002fd8:	9080004c 	andi	r2,r18,1
 4002fdc:	0039883a 	mov	fp,zero
 4002fe0:	10000726 	beq	r2,zero,4003000 <___svfprintf_internal_r+0x221c>
 4002fe4:	d8c02817 	ldw	r3,160(sp)
 4002fe8:	dc001dc4 	addi	r16,sp,119
 4002fec:	00800c04 	movi	r2,48
 4002ff0:	1c07c83a 	sub	r3,r3,r16
 4002ff4:	d8801dc5 	stb	r2,119(sp)
 4002ff8:	d8c02b15 	stw	r3,172(sp)
 4002ffc:	00393106 	br	40014c4 <__alt_mem_onchip_memory2_0+0xfbffc304>
 4003000:	d8002b15 	stw	zero,172(sp)
 4003004:	dc001e04 	addi	r16,sp,120
 4003008:	00392e06 	br	40014c4 <__alt_mem_onchip_memory2_0+0xfbffc304>
 400300c:	0005883a 	mov	r2,zero
 4003010:	003e3306 	br	40028e0 <__alt_mem_onchip_memory2_0+0xfbffd720>
 4003014:	dd802617 	ldw	r22,152(sp)
 4003018:	003f0706 	br	4002c38 <__alt_mem_onchip_memory2_0+0xfbffda78>
 400301c:	d8c02b03 	ldbu	r3,172(sp)
 4003020:	d8c02785 	stb	r3,158(sp)
 4003024:	003a3506 	br	40018fc <__alt_mem_onchip_memory2_0+0xfbffc73c>
 4003028:	d8c02b03 	ldbu	r3,172(sp)
 400302c:	d8c02785 	stb	r3,158(sp)
 4003030:	003a1706 	br	4001890 <__alt_mem_onchip_memory2_0+0xfbffc6d0>
 4003034:	0005883a 	mov	r2,zero
 4003038:	003f5d06 	br	4002db0 <__alt_mem_onchip_memory2_0+0xfbffdbf0>
 400303c:	d8c02b03 	ldbu	r3,172(sp)
 4003040:	d8c02785 	stb	r3,158(sp)
 4003044:	0038f306 	br	4001414 <__alt_mem_onchip_memory2_0+0xfbffc254>
 4003048:	d8c02b03 	ldbu	r3,172(sp)
 400304c:	d8c02785 	stb	r3,158(sp)
 4003050:	0038be06 	br	400134c <__alt_mem_onchip_memory2_0+0xfbffc18c>
 4003054:	d8802344 	addi	r2,sp,141
 4003058:	003f0506 	br	4002c70 <__alt_mem_onchip_memory2_0+0xfbffdab0>
 400305c:	d8c02b03 	ldbu	r3,172(sp)
 4003060:	d8c02785 	stb	r3,158(sp)
 4003064:	00388b06 	br	4001294 <__alt_mem_onchip_memory2_0+0xfbffc0d4>
 4003068:	d8c02b03 	ldbu	r3,172(sp)
 400306c:	d8c02785 	stb	r3,158(sp)
 4003070:	003ad706 	br	4001bd0 <__alt_mem_onchip_memory2_0+0xfbffca10>
 4003074:	d9403917 	ldw	r5,228(sp)
 4003078:	00800304 	movi	r2,12
 400307c:	28800015 	stw	r2,0(r5)
 4003080:	00bfffc4 	movi	r2,-1
 4003084:	00384306 	br	4001194 <__alt_mem_onchip_memory2_0+0xfbffbfd4>
 4003088:	d8c02b03 	ldbu	r3,172(sp)
 400308c:	d8c02785 	stb	r3,158(sp)
 4003090:	003ab606 	br	4001b6c <__alt_mem_onchip_memory2_0+0xfbffc9ac>
 4003094:	d8c02b03 	ldbu	r3,172(sp)
 4003098:	d8c02785 	stb	r3,158(sp)
 400309c:	003a8906 	br	4001ac4 <__alt_mem_onchip_memory2_0+0xfbffc904>

040030a0 <___vfprintf_internal_r>:
 40030a0:	deffb804 	addi	sp,sp,-288
 40030a4:	dfc04715 	stw	ra,284(sp)
 40030a8:	ddc04515 	stw	r23,276(sp)
 40030ac:	dd404315 	stw	r21,268(sp)
 40030b0:	d9002d15 	stw	r4,180(sp)
 40030b4:	282f883a 	mov	r23,r5
 40030b8:	302b883a 	mov	r21,r6
 40030bc:	d9c02e15 	stw	r7,184(sp)
 40030c0:	df004615 	stw	fp,280(sp)
 40030c4:	dd804415 	stw	r22,272(sp)
 40030c8:	dd004215 	stw	r20,264(sp)
 40030cc:	dcc04115 	stw	r19,260(sp)
 40030d0:	dc804015 	stw	r18,256(sp)
 40030d4:	dc403f15 	stw	r17,252(sp)
 40030d8:	dc003e15 	stw	r16,248(sp)
 40030dc:	4007b180 	call	4007b18 <_localeconv_r>
 40030e0:	10800017 	ldw	r2,0(r2)
 40030e4:	1009883a 	mov	r4,r2
 40030e8:	d8803415 	stw	r2,208(sp)
 40030ec:	4000d4c0 	call	4000d4c <strlen>
 40030f0:	d8803715 	stw	r2,220(sp)
 40030f4:	d8802d17 	ldw	r2,180(sp)
 40030f8:	10000226 	beq	r2,zero,4003104 <___vfprintf_internal_r+0x64>
 40030fc:	10800e17 	ldw	r2,56(r2)
 4003100:	1000fb26 	beq	r2,zero,40034f0 <___vfprintf_internal_r+0x450>
 4003104:	b880030b 	ldhu	r2,12(r23)
 4003108:	10c8000c 	andi	r3,r2,8192
 400310c:	1800061e 	bne	r3,zero,4003128 <___vfprintf_internal_r+0x88>
 4003110:	b9001917 	ldw	r4,100(r23)
 4003114:	00f7ffc4 	movi	r3,-8193
 4003118:	10880014 	ori	r2,r2,8192
 400311c:	20c6703a 	and	r3,r4,r3
 4003120:	b880030d 	sth	r2,12(r23)
 4003124:	b8c01915 	stw	r3,100(r23)
 4003128:	10c0020c 	andi	r3,r2,8
 400312c:	1800c326 	beq	r3,zero,400343c <___vfprintf_internal_r+0x39c>
 4003130:	b8c00417 	ldw	r3,16(r23)
 4003134:	1800c126 	beq	r3,zero,400343c <___vfprintf_internal_r+0x39c>
 4003138:	1080068c 	andi	r2,r2,26
 400313c:	00c00284 	movi	r3,10
 4003140:	10c0c626 	beq	r2,r3,400345c <___vfprintf_internal_r+0x3bc>
 4003144:	d8c00404 	addi	r3,sp,16
 4003148:	05010074 	movhi	r20,1025
 400314c:	d9001e04 	addi	r4,sp,120
 4003150:	a50f2584 	addi	r20,r20,15510
 4003154:	d8c01e15 	stw	r3,120(sp)
 4003158:	d8002015 	stw	zero,128(sp)
 400315c:	d8001f15 	stw	zero,124(sp)
 4003160:	d8003315 	stw	zero,204(sp)
 4003164:	d8003615 	stw	zero,216(sp)
 4003168:	d8003815 	stw	zero,224(sp)
 400316c:	1811883a 	mov	r8,r3
 4003170:	d8003915 	stw	zero,228(sp)
 4003174:	d8003a15 	stw	zero,232(sp)
 4003178:	d8002f15 	stw	zero,188(sp)
 400317c:	d9002815 	stw	r4,160(sp)
 4003180:	a8800007 	ldb	r2,0(r21)
 4003184:	10028b26 	beq	r2,zero,4003bb4 <___vfprintf_internal_r+0xb14>
 4003188:	00c00944 	movi	r3,37
 400318c:	a823883a 	mov	r17,r21
 4003190:	10c0021e 	bne	r2,r3,400319c <___vfprintf_internal_r+0xfc>
 4003194:	00001406 	br	40031e8 <___vfprintf_internal_r+0x148>
 4003198:	10c00326 	beq	r2,r3,40031a8 <___vfprintf_internal_r+0x108>
 400319c:	8c400044 	addi	r17,r17,1
 40031a0:	88800007 	ldb	r2,0(r17)
 40031a4:	103ffc1e 	bne	r2,zero,4003198 <__alt_mem_onchip_memory2_0+0xfbffdfd8>
 40031a8:	8d61c83a 	sub	r16,r17,r21
 40031ac:	80000e26 	beq	r16,zero,40031e8 <___vfprintf_internal_r+0x148>
 40031b0:	d8c02017 	ldw	r3,128(sp)
 40031b4:	d8801f17 	ldw	r2,124(sp)
 40031b8:	45400015 	stw	r21,0(r8)
 40031bc:	1c07883a 	add	r3,r3,r16
 40031c0:	10800044 	addi	r2,r2,1
 40031c4:	d8c02015 	stw	r3,128(sp)
 40031c8:	44000115 	stw	r16,4(r8)
 40031cc:	d8801f15 	stw	r2,124(sp)
 40031d0:	00c001c4 	movi	r3,7
 40031d4:	1880a916 	blt	r3,r2,400347c <___vfprintf_internal_r+0x3dc>
 40031d8:	42000204 	addi	r8,r8,8
 40031dc:	d9402f17 	ldw	r5,188(sp)
 40031e0:	2c0b883a 	add	r5,r5,r16
 40031e4:	d9402f15 	stw	r5,188(sp)
 40031e8:	88800007 	ldb	r2,0(r17)
 40031ec:	1000aa26 	beq	r2,zero,4003498 <___vfprintf_internal_r+0x3f8>
 40031f0:	8d400044 	addi	r21,r17,1
 40031f4:	8c400047 	ldb	r17,1(r17)
 40031f8:	0021883a 	mov	r16,zero
 40031fc:	00bfffc4 	movi	r2,-1
 4003200:	0025883a 	mov	r18,zero
 4003204:	dc002905 	stb	r16,164(sp)
 4003208:	d8002785 	stb	zero,158(sp)
 400320c:	d8002b05 	stb	zero,172(sp)
 4003210:	d8802a15 	stw	r2,168(sp)
 4003214:	d8003115 	stw	zero,196(sp)
 4003218:	04c01604 	movi	r19,88
 400321c:	05800244 	movi	r22,9
 4003220:	9021883a 	mov	r16,r18
 4003224:	4039883a 	mov	fp,r8
 4003228:	ad400044 	addi	r21,r21,1
 400322c:	88bff804 	addi	r2,r17,-32
 4003230:	98833236 	bltu	r19,r2,4003efc <___vfprintf_internal_r+0xe5c>
 4003234:	100490ba 	slli	r2,r2,2
 4003238:	00c10034 	movhi	r3,1024
 400323c:	18cc9304 	addi	r3,r3,12876
 4003240:	10c5883a 	add	r2,r2,r3
 4003244:	10800017 	ldw	r2,0(r2)
 4003248:	1000683a 	jmp	r2
 400324c:	04003df4 	movhi	r16,247
 4003250:	04003efc 	xorhi	r16,zero,251
 4003254:	04003efc 	xorhi	r16,zero,251
 4003258:	04003e14 	movui	r16,248
 400325c:	04003efc 	xorhi	r16,zero,251
 4003260:	04003efc 	xorhi	r16,zero,251
 4003264:	04003efc 	xorhi	r16,zero,251
 4003268:	04003efc 	xorhi	r16,zero,251
 400326c:	04003efc 	xorhi	r16,zero,251
 4003270:	04003efc 	xorhi	r16,zero,251
 4003274:	040034fc 	xorhi	r16,zero,211
 4003278:	04003d04 	movi	r16,244
 400327c:	04003efc 	xorhi	r16,zero,251
 4003280:	040033c0 	call	40033c <__alt_mem_sdram-0x3bffcc4>
 4003284:	04003520 	cmpeqi	r16,zero,212
 4003288:	04003efc 	xorhi	r16,zero,251
 400328c:	04003570 	cmpltui	r16,zero,213
 4003290:	0400357c 	xorhi	r16,zero,213
 4003294:	0400357c 	xorhi	r16,zero,213
 4003298:	0400357c 	xorhi	r16,zero,213
 400329c:	0400357c 	xorhi	r16,zero,213
 40032a0:	0400357c 	xorhi	r16,zero,213
 40032a4:	0400357c 	xorhi	r16,zero,213
 40032a8:	0400357c 	xorhi	r16,zero,213
 40032ac:	0400357c 	xorhi	r16,zero,213
 40032b0:	0400357c 	xorhi	r16,zero,213
 40032b4:	04003efc 	xorhi	r16,zero,251
 40032b8:	04003efc 	xorhi	r16,zero,251
 40032bc:	04003efc 	xorhi	r16,zero,251
 40032c0:	04003efc 	xorhi	r16,zero,251
 40032c4:	04003efc 	xorhi	r16,zero,251
 40032c8:	04003efc 	xorhi	r16,zero,251
 40032cc:	04003efc 	xorhi	r16,zero,251
 40032d0:	04003efc 	xorhi	r16,zero,251
 40032d4:	04003efc 	xorhi	r16,zero,251
 40032d8:	04003efc 	xorhi	r16,zero,251
 40032dc:	040035b8 	rdprs	r16,zero,214
 40032e0:	04003680 	call	400368 <__alt_mem_sdram-0x3bffc98>
 40032e4:	04003efc 	xorhi	r16,zero,251
 40032e8:	04003680 	call	400368 <__alt_mem_sdram-0x3bffc98>
 40032ec:	04003efc 	xorhi	r16,zero,251
 40032f0:	04003efc 	xorhi	r16,zero,251
 40032f4:	04003efc 	xorhi	r16,zero,251
 40032f8:	04003efc 	xorhi	r16,zero,251
 40032fc:	0400372c 	andhi	r16,zero,220
 4003300:	04003efc 	xorhi	r16,zero,251
 4003304:	04003efc 	xorhi	r16,zero,251
 4003308:	04003738 	rdprs	r16,zero,220
 400330c:	04003efc 	xorhi	r16,zero,251
 4003310:	04003efc 	xorhi	r16,zero,251
 4003314:	04003efc 	xorhi	r16,zero,251
 4003318:	04003efc 	xorhi	r16,zero,251
 400331c:	04003efc 	xorhi	r16,zero,251
 4003320:	04003bbc 	xorhi	r16,zero,238
 4003324:	04003efc 	xorhi	r16,zero,251
 4003328:	04003efc 	xorhi	r16,zero,251
 400332c:	04003c28 	cmpgeui	r16,zero,240
 4003330:	04003efc 	xorhi	r16,zero,251
 4003334:	04003efc 	xorhi	r16,zero,251
 4003338:	04003efc 	xorhi	r16,zero,251
 400333c:	04003efc 	xorhi	r16,zero,251
 4003340:	04003efc 	xorhi	r16,zero,251
 4003344:	04003efc 	xorhi	r16,zero,251
 4003348:	04003efc 	xorhi	r16,zero,251
 400334c:	04003efc 	xorhi	r16,zero,251
 4003350:	04003efc 	xorhi	r16,zero,251
 4003354:	04003efc 	xorhi	r16,zero,251
 4003358:	04003ea0 	cmpeqi	r16,zero,250
 400335c:	04003e20 	cmpeqi	r16,zero,248
 4003360:	04003680 	call	400368 <__alt_mem_sdram-0x3bffc98>
 4003364:	04003680 	call	400368 <__alt_mem_sdram-0x3bffc98>
 4003368:	04003680 	call	400368 <__alt_mem_sdram-0x3bffc98>
 400336c:	04003e40 	call	4003e4 <__alt_mem_sdram-0x3bffc1c>
 4003370:	04003e20 	cmpeqi	r16,zero,248
 4003374:	04003efc 	xorhi	r16,zero,251
 4003378:	04003efc 	xorhi	r16,zero,251
 400337c:	04003e4c 	andi	r16,zero,249
 4003380:	04003efc 	xorhi	r16,zero,251
 4003384:	04003e60 	cmpeqi	r16,zero,249
 4003388:	04003ce4 	muli	r16,zero,243
 400338c:	040033cc 	andi	r16,zero,207
 4003390:	04003d1c 	xori	r16,zero,244
 4003394:	04003efc 	xorhi	r16,zero,251
 4003398:	04003d28 	cmpgeui	r16,zero,244
 400339c:	04003efc 	xorhi	r16,zero,251
 40033a0:	04003d8c 	andi	r16,zero,246
 40033a4:	04003efc 	xorhi	r16,zero,251
 40033a8:	04003efc 	xorhi	r16,zero,251
 40033ac:	04003dac 	andhi	r16,zero,246
 40033b0:	d8c03117 	ldw	r3,196(sp)
 40033b4:	d8802e15 	stw	r2,184(sp)
 40033b8:	00c7c83a 	sub	r3,zero,r3
 40033bc:	d8c03115 	stw	r3,196(sp)
 40033c0:	84000114 	ori	r16,r16,4
 40033c4:	ac400007 	ldb	r17,0(r21)
 40033c8:	003f9706 	br	4003228 <__alt_mem_onchip_memory2_0+0xfbffe068>
 40033cc:	00800c04 	movi	r2,48
 40033d0:	d8802705 	stb	r2,156(sp)
 40033d4:	00801e04 	movi	r2,120
 40033d8:	d8802745 	stb	r2,157(sp)
 40033dc:	d9002a17 	ldw	r4,168(sp)
 40033e0:	d8802e17 	ldw	r2,184(sp)
 40033e4:	d8002785 	stb	zero,158(sp)
 40033e8:	e011883a 	mov	r8,fp
 40033ec:	10c00104 	addi	r3,r2,4
 40033f0:	14c00017 	ldw	r19,0(r2)
 40033f4:	002d883a 	mov	r22,zero
 40033f8:	80800094 	ori	r2,r16,2
 40033fc:	2002ca16 	blt	r4,zero,4003f28 <___vfprintf_internal_r+0xe88>
 4003400:	00bfdfc4 	movi	r2,-129
 4003404:	80a4703a 	and	r18,r16,r2
 4003408:	d8c02e15 	stw	r3,184(sp)
 400340c:	94800094 	ori	r18,r18,2
 4003410:	9802b41e 	bne	r19,zero,4003ee4 <___vfprintf_internal_r+0xe44>
 4003414:	01410074 	movhi	r5,1025
 4003418:	294f1604 	addi	r5,r5,15448
 400341c:	d9403915 	stw	r5,228(sp)
 4003420:	04401e04 	movi	r17,120
 4003424:	d8802a17 	ldw	r2,168(sp)
 4003428:	0039883a 	mov	fp,zero
 400342c:	1001fa26 	beq	r2,zero,4003c18 <___vfprintf_internal_r+0xb78>
 4003430:	0027883a 	mov	r19,zero
 4003434:	002d883a 	mov	r22,zero
 4003438:	00021906 	br	4003ca0 <___vfprintf_internal_r+0xc00>
 400343c:	d9002d17 	ldw	r4,180(sp)
 4003440:	b80b883a 	mov	r5,r23
 4003444:	40054540 	call	4005454 <__swsetup_r>
 4003448:	1005dc1e 	bne	r2,zero,4004bbc <___vfprintf_internal_r+0x1b1c>
 400344c:	b880030b 	ldhu	r2,12(r23)
 4003450:	00c00284 	movi	r3,10
 4003454:	1080068c 	andi	r2,r2,26
 4003458:	10ff3a1e 	bne	r2,r3,4003144 <__alt_mem_onchip_memory2_0+0xfbffdf84>
 400345c:	b880038f 	ldh	r2,14(r23)
 4003460:	103f3816 	blt	r2,zero,4003144 <__alt_mem_onchip_memory2_0+0xfbffdf84>
 4003464:	d9c02e17 	ldw	r7,184(sp)
 4003468:	d9002d17 	ldw	r4,180(sp)
 400346c:	a80d883a 	mov	r6,r21
 4003470:	b80b883a 	mov	r5,r23
 4003474:	40053980 	call	4005398 <__sbprintf>
 4003478:	00001106 	br	40034c0 <___vfprintf_internal_r+0x420>
 400347c:	d9002d17 	ldw	r4,180(sp)
 4003480:	d9801e04 	addi	r6,sp,120
 4003484:	b80b883a 	mov	r5,r23
 4003488:	400b2680 	call	400b268 <__sprint_r>
 400348c:	1000081e 	bne	r2,zero,40034b0 <___vfprintf_internal_r+0x410>
 4003490:	da000404 	addi	r8,sp,16
 4003494:	003f5106 	br	40031dc <__alt_mem_onchip_memory2_0+0xfbffe01c>
 4003498:	d8802017 	ldw	r2,128(sp)
 400349c:	10000426 	beq	r2,zero,40034b0 <___vfprintf_internal_r+0x410>
 40034a0:	d9002d17 	ldw	r4,180(sp)
 40034a4:	d9801e04 	addi	r6,sp,120
 40034a8:	b80b883a 	mov	r5,r23
 40034ac:	400b2680 	call	400b268 <__sprint_r>
 40034b0:	b880030b 	ldhu	r2,12(r23)
 40034b4:	1080100c 	andi	r2,r2,64
 40034b8:	1005c01e 	bne	r2,zero,4004bbc <___vfprintf_internal_r+0x1b1c>
 40034bc:	d8802f17 	ldw	r2,188(sp)
 40034c0:	dfc04717 	ldw	ra,284(sp)
 40034c4:	df004617 	ldw	fp,280(sp)
 40034c8:	ddc04517 	ldw	r23,276(sp)
 40034cc:	dd804417 	ldw	r22,272(sp)
 40034d0:	dd404317 	ldw	r21,268(sp)
 40034d4:	dd004217 	ldw	r20,264(sp)
 40034d8:	dcc04117 	ldw	r19,260(sp)
 40034dc:	dc804017 	ldw	r18,256(sp)
 40034e0:	dc403f17 	ldw	r17,252(sp)
 40034e4:	dc003e17 	ldw	r16,248(sp)
 40034e8:	dec04804 	addi	sp,sp,288
 40034ec:	f800283a 	ret
 40034f0:	d9002d17 	ldw	r4,180(sp)
 40034f4:	40074600 	call	4007460 <__sinit>
 40034f8:	003f0206 	br	4003104 <__alt_mem_onchip_memory2_0+0xfbffdf44>
 40034fc:	d9002e17 	ldw	r4,184(sp)
 4003500:	d9402e17 	ldw	r5,184(sp)
 4003504:	21000017 	ldw	r4,0(r4)
 4003508:	28800104 	addi	r2,r5,4
 400350c:	d9003115 	stw	r4,196(sp)
 4003510:	203fa716 	blt	r4,zero,40033b0 <__alt_mem_onchip_memory2_0+0xfbffe1f0>
 4003514:	d8802e15 	stw	r2,184(sp)
 4003518:	ac400007 	ldb	r17,0(r21)
 400351c:	003f4206 	br	4003228 <__alt_mem_onchip_memory2_0+0xfbffe068>
 4003520:	ac400007 	ldb	r17,0(r21)
 4003524:	01000a84 	movi	r4,42
 4003528:	a8c00044 	addi	r3,r21,1
 400352c:	89075826 	beq	r17,r4,4005290 <___vfprintf_internal_r+0x21f0>
 4003530:	8cbff404 	addi	r18,r17,-48
 4003534:	b486ae36 	bltu	r22,r18,4004ff0 <___vfprintf_internal_r+0x1f50>
 4003538:	0009883a 	mov	r4,zero
 400353c:	1823883a 	mov	r17,r3
 4003540:	01400284 	movi	r5,10
 4003544:	4000b780 	call	4000b78 <__mulsi3>
 4003548:	88c00007 	ldb	r3,0(r17)
 400354c:	1489883a 	add	r4,r2,r18
 4003550:	8d400044 	addi	r21,r17,1
 4003554:	1cbff404 	addi	r18,r3,-48
 4003558:	a823883a 	mov	r17,r21
 400355c:	b4bff82e 	bgeu	r22,r18,4003540 <__alt_mem_onchip_memory2_0+0xfbffe380>
 4003560:	1823883a 	mov	r17,r3
 4003564:	2005f616 	blt	r4,zero,4004d40 <___vfprintf_internal_r+0x1ca0>
 4003568:	d9002a15 	stw	r4,168(sp)
 400356c:	003f2f06 	br	400322c <__alt_mem_onchip_memory2_0+0xfbffe06c>
 4003570:	84002014 	ori	r16,r16,128
 4003574:	ac400007 	ldb	r17,0(r21)
 4003578:	003f2b06 	br	4003228 <__alt_mem_onchip_memory2_0+0xfbffe068>
 400357c:	8cbff404 	addi	r18,r17,-48
 4003580:	d8003115 	stw	zero,196(sp)
 4003584:	0009883a 	mov	r4,zero
 4003588:	a823883a 	mov	r17,r21
 400358c:	01400284 	movi	r5,10
 4003590:	4000b780 	call	4000b78 <__mulsi3>
 4003594:	88c00007 	ldb	r3,0(r17)
 4003598:	9089883a 	add	r4,r18,r2
 400359c:	ad400044 	addi	r21,r21,1
 40035a0:	1cbff404 	addi	r18,r3,-48
 40035a4:	a823883a 	mov	r17,r21
 40035a8:	b4bff82e 	bgeu	r22,r18,400358c <__alt_mem_onchip_memory2_0+0xfbffe3cc>
 40035ac:	1823883a 	mov	r17,r3
 40035b0:	d9003115 	stw	r4,196(sp)
 40035b4:	003f1d06 	br	400322c <__alt_mem_onchip_memory2_0+0xfbffe06c>
 40035b8:	8025883a 	mov	r18,r16
 40035bc:	dc002903 	ldbu	r16,164(sp)
 40035c0:	e011883a 	mov	r8,fp
 40035c4:	84003fcc 	andi	r16,r16,255
 40035c8:	8007531e 	bne	r16,zero,4005318 <___vfprintf_internal_r+0x2278>
 40035cc:	94800414 	ori	r18,r18,16
 40035d0:	9080080c 	andi	r2,r18,32
 40035d4:	1003a326 	beq	r2,zero,4004464 <___vfprintf_internal_r+0x13c4>
 40035d8:	d9002e17 	ldw	r4,184(sp)
 40035dc:	20800117 	ldw	r2,4(r4)
 40035e0:	24c00017 	ldw	r19,0(r4)
 40035e4:	21000204 	addi	r4,r4,8
 40035e8:	d9002e15 	stw	r4,184(sp)
 40035ec:	102d883a 	mov	r22,r2
 40035f0:	10047316 	blt	r2,zero,40047c0 <___vfprintf_internal_r+0x1720>
 40035f4:	d9002a17 	ldw	r4,168(sp)
 40035f8:	df002783 	ldbu	fp,158(sp)
 40035fc:	2003e416 	blt	r4,zero,4004590 <___vfprintf_internal_r+0x14f0>
 4003600:	00ffdfc4 	movi	r3,-129
 4003604:	9d84b03a 	or	r2,r19,r22
 4003608:	90e4703a 	and	r18,r18,r3
 400360c:	10018026 	beq	r2,zero,4003c10 <___vfprintf_internal_r+0xb70>
 4003610:	b003ab26 	beq	r22,zero,40044c0 <___vfprintf_internal_r+0x1420>
 4003614:	dc402915 	stw	r17,164(sp)
 4003618:	dc001e04 	addi	r16,sp,120
 400361c:	b023883a 	mov	r17,r22
 4003620:	402d883a 	mov	r22,r8
 4003624:	9809883a 	mov	r4,r19
 4003628:	880b883a 	mov	r5,r17
 400362c:	01800284 	movi	r6,10
 4003630:	000f883a 	mov	r7,zero
 4003634:	400e4400 	call	400e440 <__umoddi3>
 4003638:	10800c04 	addi	r2,r2,48
 400363c:	843fffc4 	addi	r16,r16,-1
 4003640:	9809883a 	mov	r4,r19
 4003644:	880b883a 	mov	r5,r17
 4003648:	80800005 	stb	r2,0(r16)
 400364c:	01800284 	movi	r6,10
 4003650:	000f883a 	mov	r7,zero
 4003654:	400de440 	call	400de44 <__udivdi3>
 4003658:	1027883a 	mov	r19,r2
 400365c:	10c4b03a 	or	r2,r2,r3
 4003660:	1823883a 	mov	r17,r3
 4003664:	103fef1e 	bne	r2,zero,4003624 <__alt_mem_onchip_memory2_0+0xfbffe464>
 4003668:	d8c02817 	ldw	r3,160(sp)
 400366c:	dc402917 	ldw	r17,164(sp)
 4003670:	b011883a 	mov	r8,r22
 4003674:	1c07c83a 	sub	r3,r3,r16
 4003678:	d8c02b15 	stw	r3,172(sp)
 400367c:	00005f06 	br	40037fc <___vfprintf_internal_r+0x75c>
 4003680:	8025883a 	mov	r18,r16
 4003684:	dc002903 	ldbu	r16,164(sp)
 4003688:	e011883a 	mov	r8,fp
 400368c:	84003fcc 	andi	r16,r16,255
 4003690:	80071e1e 	bne	r16,zero,400530c <___vfprintf_internal_r+0x226c>
 4003694:	9080020c 	andi	r2,r18,8
 4003698:	1004af26 	beq	r2,zero,4004958 <___vfprintf_internal_r+0x18b8>
 400369c:	d9002e17 	ldw	r4,184(sp)
 40036a0:	d9402e17 	ldw	r5,184(sp)
 40036a4:	d8802e17 	ldw	r2,184(sp)
 40036a8:	21000017 	ldw	r4,0(r4)
 40036ac:	29400117 	ldw	r5,4(r5)
 40036b0:	10800204 	addi	r2,r2,8
 40036b4:	d9003615 	stw	r4,216(sp)
 40036b8:	d9403815 	stw	r5,224(sp)
 40036bc:	d8802e15 	stw	r2,184(sp)
 40036c0:	d9003617 	ldw	r4,216(sp)
 40036c4:	d9403817 	ldw	r5,224(sp)
 40036c8:	da003d15 	stw	r8,244(sp)
 40036cc:	04000044 	movi	r16,1
 40036d0:	400991c0 	call	400991c <__fpclassifyd>
 40036d4:	da003d17 	ldw	r8,244(sp)
 40036d8:	1404441e 	bne	r2,r16,40047ec <___vfprintf_internal_r+0x174c>
 40036dc:	d9003617 	ldw	r4,216(sp)
 40036e0:	d9403817 	ldw	r5,224(sp)
 40036e4:	000d883a 	mov	r6,zero
 40036e8:	000f883a 	mov	r7,zero
 40036ec:	400fde40 	call	400fde4 <__ledf2>
 40036f0:	da003d17 	ldw	r8,244(sp)
 40036f4:	1005e316 	blt	r2,zero,4004e84 <___vfprintf_internal_r+0x1de4>
 40036f8:	df002783 	ldbu	fp,158(sp)
 40036fc:	008011c4 	movi	r2,71
 4003700:	1445580e 	bge	r2,r17,4004c64 <___vfprintf_internal_r+0x1bc4>
 4003704:	04010074 	movhi	r16,1025
 4003708:	840f0e04 	addi	r16,r16,15416
 400370c:	00c000c4 	movi	r3,3
 4003710:	00bfdfc4 	movi	r2,-129
 4003714:	d8c02915 	stw	r3,164(sp)
 4003718:	90a4703a 	and	r18,r18,r2
 400371c:	d8c02b15 	stw	r3,172(sp)
 4003720:	d8002a15 	stw	zero,168(sp)
 4003724:	d8003215 	stw	zero,200(sp)
 4003728:	00003a06 	br	4003814 <___vfprintf_internal_r+0x774>
 400372c:	84000214 	ori	r16,r16,8
 4003730:	ac400007 	ldb	r17,0(r21)
 4003734:	003ebc06 	br	4003228 <__alt_mem_onchip_memory2_0+0xfbffe068>
 4003738:	8025883a 	mov	r18,r16
 400373c:	dc002903 	ldbu	r16,164(sp)
 4003740:	e011883a 	mov	r8,fp
 4003744:	84003fcc 	andi	r16,r16,255
 4003748:	8007001e 	bne	r16,zero,400534c <___vfprintf_internal_r+0x22ac>
 400374c:	94800414 	ori	r18,r18,16
 4003750:	9080080c 	andi	r2,r18,32
 4003754:	1002fa26 	beq	r2,zero,4004340 <___vfprintf_internal_r+0x12a0>
 4003758:	d9002e17 	ldw	r4,184(sp)
 400375c:	d9402a17 	ldw	r5,168(sp)
 4003760:	d8002785 	stb	zero,158(sp)
 4003764:	20800204 	addi	r2,r4,8
 4003768:	24c00017 	ldw	r19,0(r4)
 400376c:	25800117 	ldw	r22,4(r4)
 4003770:	2804b116 	blt	r5,zero,4004a38 <___vfprintf_internal_r+0x1998>
 4003774:	013fdfc4 	movi	r4,-129
 4003778:	9d86b03a 	or	r3,r19,r22
 400377c:	d8802e15 	stw	r2,184(sp)
 4003780:	9124703a 	and	r18,r18,r4
 4003784:	1802fb1e 	bne	r3,zero,4004374 <___vfprintf_internal_r+0x12d4>
 4003788:	d8c02a17 	ldw	r3,168(sp)
 400378c:	0039883a 	mov	fp,zero
 4003790:	1805e526 	beq	r3,zero,4004f28 <___vfprintf_internal_r+0x1e88>
 4003794:	0027883a 	mov	r19,zero
 4003798:	002d883a 	mov	r22,zero
 400379c:	dc001e04 	addi	r16,sp,120
 40037a0:	9806d0fa 	srli	r3,r19,3
 40037a4:	b008977a 	slli	r4,r22,29
 40037a8:	b02cd0fa 	srli	r22,r22,3
 40037ac:	9cc001cc 	andi	r19,r19,7
 40037b0:	98800c04 	addi	r2,r19,48
 40037b4:	843fffc4 	addi	r16,r16,-1
 40037b8:	20e6b03a 	or	r19,r4,r3
 40037bc:	80800005 	stb	r2,0(r16)
 40037c0:	9d86b03a 	or	r3,r19,r22
 40037c4:	183ff61e 	bne	r3,zero,40037a0 <__alt_mem_onchip_memory2_0+0xfbffe5e0>
 40037c8:	90c0004c 	andi	r3,r18,1
 40037cc:	18014126 	beq	r3,zero,4003cd4 <___vfprintf_internal_r+0xc34>
 40037d0:	10803fcc 	andi	r2,r2,255
 40037d4:	1080201c 	xori	r2,r2,128
 40037d8:	10bfe004 	addi	r2,r2,-128
 40037dc:	00c00c04 	movi	r3,48
 40037e0:	10c13c26 	beq	r2,r3,4003cd4 <___vfprintf_internal_r+0xc34>
 40037e4:	80ffffc5 	stb	r3,-1(r16)
 40037e8:	d8c02817 	ldw	r3,160(sp)
 40037ec:	80bfffc4 	addi	r2,r16,-1
 40037f0:	1021883a 	mov	r16,r2
 40037f4:	1887c83a 	sub	r3,r3,r2
 40037f8:	d8c02b15 	stw	r3,172(sp)
 40037fc:	d8802b17 	ldw	r2,172(sp)
 4003800:	d9002a17 	ldw	r4,168(sp)
 4003804:	1100010e 	bge	r2,r4,400380c <___vfprintf_internal_r+0x76c>
 4003808:	2005883a 	mov	r2,r4
 400380c:	d8802915 	stw	r2,164(sp)
 4003810:	d8003215 	stw	zero,200(sp)
 4003814:	e7003fcc 	andi	fp,fp,255
 4003818:	e700201c 	xori	fp,fp,128
 400381c:	e73fe004 	addi	fp,fp,-128
 4003820:	e0000326 	beq	fp,zero,4003830 <___vfprintf_internal_r+0x790>
 4003824:	d8c02917 	ldw	r3,164(sp)
 4003828:	18c00044 	addi	r3,r3,1
 400382c:	d8c02915 	stw	r3,164(sp)
 4003830:	90c0008c 	andi	r3,r18,2
 4003834:	d8c02c15 	stw	r3,176(sp)
 4003838:	18000326 	beq	r3,zero,4003848 <___vfprintf_internal_r+0x7a8>
 400383c:	d8c02917 	ldw	r3,164(sp)
 4003840:	18c00084 	addi	r3,r3,2
 4003844:	d8c02915 	stw	r3,164(sp)
 4003848:	90c0210c 	andi	r3,r18,132
 400384c:	d8c03015 	stw	r3,192(sp)
 4003850:	1801c51e 	bne	r3,zero,4003f68 <___vfprintf_internal_r+0xec8>
 4003854:	d9003117 	ldw	r4,196(sp)
 4003858:	d8c02917 	ldw	r3,164(sp)
 400385c:	20e7c83a 	sub	r19,r4,r3
 4003860:	04c1c10e 	bge	zero,r19,4003f68 <___vfprintf_internal_r+0xec8>
 4003864:	02400404 	movi	r9,16
 4003868:	d8c02017 	ldw	r3,128(sp)
 400386c:	d8801f17 	ldw	r2,124(sp)
 4003870:	4cc52f0e 	bge	r9,r19,4004d30 <___vfprintf_internal_r+0x1c90>
 4003874:	01410074 	movhi	r5,1025
 4003878:	294f2984 	addi	r5,r5,15526
 400387c:	dc403b15 	stw	r17,236(sp)
 4003880:	d9403515 	stw	r5,212(sp)
 4003884:	9823883a 	mov	r17,r19
 4003888:	482d883a 	mov	r22,r9
 400388c:	9027883a 	mov	r19,r18
 4003890:	070001c4 	movi	fp,7
 4003894:	8025883a 	mov	r18,r16
 4003898:	dc002d17 	ldw	r16,180(sp)
 400389c:	00000306 	br	40038ac <___vfprintf_internal_r+0x80c>
 40038a0:	8c7ffc04 	addi	r17,r17,-16
 40038a4:	42000204 	addi	r8,r8,8
 40038a8:	b440130e 	bge	r22,r17,40038f8 <___vfprintf_internal_r+0x858>
 40038ac:	01010074 	movhi	r4,1025
 40038b0:	18c00404 	addi	r3,r3,16
 40038b4:	10800044 	addi	r2,r2,1
 40038b8:	210f2984 	addi	r4,r4,15526
 40038bc:	41000015 	stw	r4,0(r8)
 40038c0:	45800115 	stw	r22,4(r8)
 40038c4:	d8c02015 	stw	r3,128(sp)
 40038c8:	d8801f15 	stw	r2,124(sp)
 40038cc:	e0bff40e 	bge	fp,r2,40038a0 <__alt_mem_onchip_memory2_0+0xfbffe6e0>
 40038d0:	d9801e04 	addi	r6,sp,120
 40038d4:	b80b883a 	mov	r5,r23
 40038d8:	8009883a 	mov	r4,r16
 40038dc:	400b2680 	call	400b268 <__sprint_r>
 40038e0:	103ef31e 	bne	r2,zero,40034b0 <__alt_mem_onchip_memory2_0+0xfbffe2f0>
 40038e4:	8c7ffc04 	addi	r17,r17,-16
 40038e8:	d8c02017 	ldw	r3,128(sp)
 40038ec:	d8801f17 	ldw	r2,124(sp)
 40038f0:	da000404 	addi	r8,sp,16
 40038f4:	b47fed16 	blt	r22,r17,40038ac <__alt_mem_onchip_memory2_0+0xfbffe6ec>
 40038f8:	9021883a 	mov	r16,r18
 40038fc:	9825883a 	mov	r18,r19
 4003900:	8827883a 	mov	r19,r17
 4003904:	dc403b17 	ldw	r17,236(sp)
 4003908:	d9403517 	ldw	r5,212(sp)
 400390c:	98c7883a 	add	r3,r19,r3
 4003910:	10800044 	addi	r2,r2,1
 4003914:	41400015 	stw	r5,0(r8)
 4003918:	44c00115 	stw	r19,4(r8)
 400391c:	d8c02015 	stw	r3,128(sp)
 4003920:	d8801f15 	stw	r2,124(sp)
 4003924:	010001c4 	movi	r4,7
 4003928:	2082c516 	blt	r4,r2,4004440 <___vfprintf_internal_r+0x13a0>
 400392c:	df002787 	ldb	fp,158(sp)
 4003930:	42000204 	addi	r8,r8,8
 4003934:	e0000c26 	beq	fp,zero,4003968 <___vfprintf_internal_r+0x8c8>
 4003938:	d8801f17 	ldw	r2,124(sp)
 400393c:	d9002784 	addi	r4,sp,158
 4003940:	18c00044 	addi	r3,r3,1
 4003944:	10800044 	addi	r2,r2,1
 4003948:	41000015 	stw	r4,0(r8)
 400394c:	01000044 	movi	r4,1
 4003950:	41000115 	stw	r4,4(r8)
 4003954:	d8c02015 	stw	r3,128(sp)
 4003958:	d8801f15 	stw	r2,124(sp)
 400395c:	010001c4 	movi	r4,7
 4003960:	20825e16 	blt	r4,r2,40042dc <___vfprintf_internal_r+0x123c>
 4003964:	42000204 	addi	r8,r8,8
 4003968:	d8802c17 	ldw	r2,176(sp)
 400396c:	10000c26 	beq	r2,zero,40039a0 <___vfprintf_internal_r+0x900>
 4003970:	d8801f17 	ldw	r2,124(sp)
 4003974:	d9002704 	addi	r4,sp,156
 4003978:	18c00084 	addi	r3,r3,2
 400397c:	10800044 	addi	r2,r2,1
 4003980:	41000015 	stw	r4,0(r8)
 4003984:	01000084 	movi	r4,2
 4003988:	41000115 	stw	r4,4(r8)
 400398c:	d8c02015 	stw	r3,128(sp)
 4003990:	d8801f15 	stw	r2,124(sp)
 4003994:	010001c4 	movi	r4,7
 4003998:	20825816 	blt	r4,r2,40042fc <___vfprintf_internal_r+0x125c>
 400399c:	42000204 	addi	r8,r8,8
 40039a0:	d9003017 	ldw	r4,192(sp)
 40039a4:	00802004 	movi	r2,128
 40039a8:	2081bb26 	beq	r4,r2,4004098 <___vfprintf_internal_r+0xff8>
 40039ac:	d9402a17 	ldw	r5,168(sp)
 40039b0:	d8802b17 	ldw	r2,172(sp)
 40039b4:	28adc83a 	sub	r22,r5,r2
 40039b8:	0580310e 	bge	zero,r22,4003a80 <___vfprintf_internal_r+0x9e0>
 40039bc:	07000404 	movi	fp,16
 40039c0:	d8801f17 	ldw	r2,124(sp)
 40039c4:	e584360e 	bge	fp,r22,4004aa0 <___vfprintf_internal_r+0x1a00>
 40039c8:	01410074 	movhi	r5,1025
 40039cc:	294f2584 	addi	r5,r5,15510
 40039d0:	dc402a15 	stw	r17,168(sp)
 40039d4:	d9402c15 	stw	r5,176(sp)
 40039d8:	b023883a 	mov	r17,r22
 40039dc:	04c001c4 	movi	r19,7
 40039e0:	a82d883a 	mov	r22,r21
 40039e4:	902b883a 	mov	r21,r18
 40039e8:	8025883a 	mov	r18,r16
 40039ec:	dc002d17 	ldw	r16,180(sp)
 40039f0:	00000306 	br	4003a00 <___vfprintf_internal_r+0x960>
 40039f4:	8c7ffc04 	addi	r17,r17,-16
 40039f8:	42000204 	addi	r8,r8,8
 40039fc:	e440110e 	bge	fp,r17,4003a44 <___vfprintf_internal_r+0x9a4>
 4003a00:	18c00404 	addi	r3,r3,16
 4003a04:	10800044 	addi	r2,r2,1
 4003a08:	45000015 	stw	r20,0(r8)
 4003a0c:	47000115 	stw	fp,4(r8)
 4003a10:	d8c02015 	stw	r3,128(sp)
 4003a14:	d8801f15 	stw	r2,124(sp)
 4003a18:	98bff60e 	bge	r19,r2,40039f4 <__alt_mem_onchip_memory2_0+0xfbffe834>
 4003a1c:	d9801e04 	addi	r6,sp,120
 4003a20:	b80b883a 	mov	r5,r23
 4003a24:	8009883a 	mov	r4,r16
 4003a28:	400b2680 	call	400b268 <__sprint_r>
 4003a2c:	103ea01e 	bne	r2,zero,40034b0 <__alt_mem_onchip_memory2_0+0xfbffe2f0>
 4003a30:	8c7ffc04 	addi	r17,r17,-16
 4003a34:	d8c02017 	ldw	r3,128(sp)
 4003a38:	d8801f17 	ldw	r2,124(sp)
 4003a3c:	da000404 	addi	r8,sp,16
 4003a40:	e47fef16 	blt	fp,r17,4003a00 <__alt_mem_onchip_memory2_0+0xfbffe840>
 4003a44:	9021883a 	mov	r16,r18
 4003a48:	a825883a 	mov	r18,r21
 4003a4c:	b02b883a 	mov	r21,r22
 4003a50:	882d883a 	mov	r22,r17
 4003a54:	dc402a17 	ldw	r17,168(sp)
 4003a58:	d9002c17 	ldw	r4,176(sp)
 4003a5c:	1d87883a 	add	r3,r3,r22
 4003a60:	10800044 	addi	r2,r2,1
 4003a64:	41000015 	stw	r4,0(r8)
 4003a68:	45800115 	stw	r22,4(r8)
 4003a6c:	d8c02015 	stw	r3,128(sp)
 4003a70:	d8801f15 	stw	r2,124(sp)
 4003a74:	010001c4 	movi	r4,7
 4003a78:	20821016 	blt	r4,r2,40042bc <___vfprintf_internal_r+0x121c>
 4003a7c:	42000204 	addi	r8,r8,8
 4003a80:	9080400c 	andi	r2,r18,256
 4003a84:	10013a1e 	bne	r2,zero,4003f70 <___vfprintf_internal_r+0xed0>
 4003a88:	d9402b17 	ldw	r5,172(sp)
 4003a8c:	d8801f17 	ldw	r2,124(sp)
 4003a90:	44000015 	stw	r16,0(r8)
 4003a94:	1947883a 	add	r3,r3,r5
 4003a98:	10800044 	addi	r2,r2,1
 4003a9c:	41400115 	stw	r5,4(r8)
 4003aa0:	d8c02015 	stw	r3,128(sp)
 4003aa4:	d8801f15 	stw	r2,124(sp)
 4003aa8:	010001c4 	movi	r4,7
 4003aac:	2081f516 	blt	r4,r2,4004284 <___vfprintf_internal_r+0x11e4>
 4003ab0:	42000204 	addi	r8,r8,8
 4003ab4:	9480010c 	andi	r18,r18,4
 4003ab8:	90003226 	beq	r18,zero,4003b84 <___vfprintf_internal_r+0xae4>
 4003abc:	d9403117 	ldw	r5,196(sp)
 4003ac0:	d8802917 	ldw	r2,164(sp)
 4003ac4:	28a1c83a 	sub	r16,r5,r2
 4003ac8:	04002e0e 	bge	zero,r16,4003b84 <___vfprintf_internal_r+0xae4>
 4003acc:	04400404 	movi	r17,16
 4003ad0:	d8801f17 	ldw	r2,124(sp)
 4003ad4:	8c04c40e 	bge	r17,r16,4004de8 <___vfprintf_internal_r+0x1d48>
 4003ad8:	01410074 	movhi	r5,1025
 4003adc:	294f2984 	addi	r5,r5,15526
 4003ae0:	d9403515 	stw	r5,212(sp)
 4003ae4:	048001c4 	movi	r18,7
 4003ae8:	dcc02d17 	ldw	r19,180(sp)
 4003aec:	00000306 	br	4003afc <___vfprintf_internal_r+0xa5c>
 4003af0:	843ffc04 	addi	r16,r16,-16
 4003af4:	42000204 	addi	r8,r8,8
 4003af8:	8c00130e 	bge	r17,r16,4003b48 <___vfprintf_internal_r+0xaa8>
 4003afc:	01010074 	movhi	r4,1025
 4003b00:	18c00404 	addi	r3,r3,16
 4003b04:	10800044 	addi	r2,r2,1
 4003b08:	210f2984 	addi	r4,r4,15526
 4003b0c:	41000015 	stw	r4,0(r8)
 4003b10:	44400115 	stw	r17,4(r8)
 4003b14:	d8c02015 	stw	r3,128(sp)
 4003b18:	d8801f15 	stw	r2,124(sp)
 4003b1c:	90bff40e 	bge	r18,r2,4003af0 <__alt_mem_onchip_memory2_0+0xfbffe930>
 4003b20:	d9801e04 	addi	r6,sp,120
 4003b24:	b80b883a 	mov	r5,r23
 4003b28:	9809883a 	mov	r4,r19
 4003b2c:	400b2680 	call	400b268 <__sprint_r>
 4003b30:	103e5f1e 	bne	r2,zero,40034b0 <__alt_mem_onchip_memory2_0+0xfbffe2f0>
 4003b34:	843ffc04 	addi	r16,r16,-16
 4003b38:	d8c02017 	ldw	r3,128(sp)
 4003b3c:	d8801f17 	ldw	r2,124(sp)
 4003b40:	da000404 	addi	r8,sp,16
 4003b44:	8c3fed16 	blt	r17,r16,4003afc <__alt_mem_onchip_memory2_0+0xfbffe93c>
 4003b48:	d9403517 	ldw	r5,212(sp)
 4003b4c:	1c07883a 	add	r3,r3,r16
 4003b50:	10800044 	addi	r2,r2,1
 4003b54:	41400015 	stw	r5,0(r8)
 4003b58:	44000115 	stw	r16,4(r8)
 4003b5c:	d8c02015 	stw	r3,128(sp)
 4003b60:	d8801f15 	stw	r2,124(sp)
 4003b64:	010001c4 	movi	r4,7
 4003b68:	2080060e 	bge	r4,r2,4003b84 <___vfprintf_internal_r+0xae4>
 4003b6c:	d9002d17 	ldw	r4,180(sp)
 4003b70:	d9801e04 	addi	r6,sp,120
 4003b74:	b80b883a 	mov	r5,r23
 4003b78:	400b2680 	call	400b268 <__sprint_r>
 4003b7c:	103e4c1e 	bne	r2,zero,40034b0 <__alt_mem_onchip_memory2_0+0xfbffe2f0>
 4003b80:	d8c02017 	ldw	r3,128(sp)
 4003b84:	d8803117 	ldw	r2,196(sp)
 4003b88:	d9002917 	ldw	r4,164(sp)
 4003b8c:	1100010e 	bge	r2,r4,4003b94 <___vfprintf_internal_r+0xaf4>
 4003b90:	2005883a 	mov	r2,r4
 4003b94:	d9402f17 	ldw	r5,188(sp)
 4003b98:	288b883a 	add	r5,r5,r2
 4003b9c:	d9402f15 	stw	r5,188(sp)
 4003ba0:	1801c01e 	bne	r3,zero,40042a4 <___vfprintf_internal_r+0x1204>
 4003ba4:	a8800007 	ldb	r2,0(r21)
 4003ba8:	d8001f15 	stw	zero,124(sp)
 4003bac:	da000404 	addi	r8,sp,16
 4003bb0:	103d751e 	bne	r2,zero,4003188 <__alt_mem_onchip_memory2_0+0xfbffdfc8>
 4003bb4:	a823883a 	mov	r17,r21
 4003bb8:	003d8b06 	br	40031e8 <__alt_mem_onchip_memory2_0+0xfbffe028>
 4003bbc:	8025883a 	mov	r18,r16
 4003bc0:	dc002903 	ldbu	r16,164(sp)
 4003bc4:	e011883a 	mov	r8,fp
 4003bc8:	84003fcc 	andi	r16,r16,255
 4003bcc:	8005e51e 	bne	r16,zero,4005364 <___vfprintf_internal_r+0x22c4>
 4003bd0:	94800414 	ori	r18,r18,16
 4003bd4:	9080080c 	andi	r2,r18,32
 4003bd8:	10022b26 	beq	r2,zero,4004488 <___vfprintf_internal_r+0x13e8>
 4003bdc:	d9002e17 	ldw	r4,184(sp)
 4003be0:	d9402a17 	ldw	r5,168(sp)
 4003be4:	d8002785 	stb	zero,158(sp)
 4003be8:	20c00204 	addi	r3,r4,8
 4003bec:	24c00017 	ldw	r19,0(r4)
 4003bf0:	25800117 	ldw	r22,4(r4)
 4003bf4:	28042e16 	blt	r5,zero,4004cb0 <___vfprintf_internal_r+0x1c10>
 4003bf8:	013fdfc4 	movi	r4,-129
 4003bfc:	9d84b03a 	or	r2,r19,r22
 4003c00:	d8c02e15 	stw	r3,184(sp)
 4003c04:	9124703a 	and	r18,r18,r4
 4003c08:	0039883a 	mov	fp,zero
 4003c0c:	103e801e 	bne	r2,zero,4003610 <__alt_mem_onchip_memory2_0+0xfbffe450>
 4003c10:	d9002a17 	ldw	r4,168(sp)
 4003c14:	2002e01e 	bne	r4,zero,4004798 <___vfprintf_internal_r+0x16f8>
 4003c18:	d8002a15 	stw	zero,168(sp)
 4003c1c:	d8002b15 	stw	zero,172(sp)
 4003c20:	dc001e04 	addi	r16,sp,120
 4003c24:	003ef506 	br	40037fc <__alt_mem_onchip_memory2_0+0xfbffe63c>
 4003c28:	8025883a 	mov	r18,r16
 4003c2c:	dc002903 	ldbu	r16,164(sp)
 4003c30:	e011883a 	mov	r8,fp
 4003c34:	84003fcc 	andi	r16,r16,255
 4003c38:	8005ba1e 	bne	r16,zero,4005324 <___vfprintf_internal_r+0x2284>
 4003c3c:	01010074 	movhi	r4,1025
 4003c40:	210f1104 	addi	r4,r4,15428
 4003c44:	d9003915 	stw	r4,228(sp)
 4003c48:	9080080c 	andi	r2,r18,32
 4003c4c:	10006126 	beq	r2,zero,4003dd4 <___vfprintf_internal_r+0xd34>
 4003c50:	d9402e17 	ldw	r5,184(sp)
 4003c54:	2cc00017 	ldw	r19,0(r5)
 4003c58:	2d800117 	ldw	r22,4(r5)
 4003c5c:	29400204 	addi	r5,r5,8
 4003c60:	d9402e15 	stw	r5,184(sp)
 4003c64:	9080004c 	andi	r2,r18,1
 4003c68:	1001ac26 	beq	r2,zero,400431c <___vfprintf_internal_r+0x127c>
 4003c6c:	9d84b03a 	or	r2,r19,r22
 4003c70:	10038526 	beq	r2,zero,4004a88 <___vfprintf_internal_r+0x19e8>
 4003c74:	d8c02a17 	ldw	r3,168(sp)
 4003c78:	00800c04 	movi	r2,48
 4003c7c:	d8802705 	stb	r2,156(sp)
 4003c80:	dc402745 	stb	r17,157(sp)
 4003c84:	d8002785 	stb	zero,158(sp)
 4003c88:	90800094 	ori	r2,r18,2
 4003c8c:	18047916 	blt	r3,zero,4004e74 <___vfprintf_internal_r+0x1dd4>
 4003c90:	00bfdfc4 	movi	r2,-129
 4003c94:	90a4703a 	and	r18,r18,r2
 4003c98:	94800094 	ori	r18,r18,2
 4003c9c:	0039883a 	mov	fp,zero
 4003ca0:	d9003917 	ldw	r4,228(sp)
 4003ca4:	dc001e04 	addi	r16,sp,120
 4003ca8:	988003cc 	andi	r2,r19,15
 4003cac:	b006973a 	slli	r3,r22,28
 4003cb0:	2085883a 	add	r2,r4,r2
 4003cb4:	9826d13a 	srli	r19,r19,4
 4003cb8:	10800003 	ldbu	r2,0(r2)
 4003cbc:	b02cd13a 	srli	r22,r22,4
 4003cc0:	843fffc4 	addi	r16,r16,-1
 4003cc4:	1ce6b03a 	or	r19,r3,r19
 4003cc8:	80800005 	stb	r2,0(r16)
 4003ccc:	9d84b03a 	or	r2,r19,r22
 4003cd0:	103ff51e 	bne	r2,zero,4003ca8 <__alt_mem_onchip_memory2_0+0xfbffeae8>
 4003cd4:	d8c02817 	ldw	r3,160(sp)
 4003cd8:	1c07c83a 	sub	r3,r3,r16
 4003cdc:	d8c02b15 	stw	r3,172(sp)
 4003ce0:	003ec606 	br	40037fc <__alt_mem_onchip_memory2_0+0xfbffe63c>
 4003ce4:	8025883a 	mov	r18,r16
 4003ce8:	dc002903 	ldbu	r16,164(sp)
 4003cec:	e011883a 	mov	r8,fp
 4003cf0:	84003fcc 	andi	r16,r16,255
 4003cf4:	803e9626 	beq	r16,zero,4003750 <__alt_mem_onchip_memory2_0+0xfbffe590>
 4003cf8:	d8c02b03 	ldbu	r3,172(sp)
 4003cfc:	d8c02785 	stb	r3,158(sp)
 4003d00:	003e9306 	br	4003750 <__alt_mem_onchip_memory2_0+0xfbffe590>
 4003d04:	00c00044 	movi	r3,1
 4003d08:	d8c02905 	stb	r3,164(sp)
 4003d0c:	00c00ac4 	movi	r3,43
 4003d10:	d8c02b05 	stb	r3,172(sp)
 4003d14:	ac400007 	ldb	r17,0(r21)
 4003d18:	003d4306 	br	4003228 <__alt_mem_onchip_memory2_0+0xfbffe068>
 4003d1c:	84000814 	ori	r16,r16,32
 4003d20:	ac400007 	ldb	r17,0(r21)
 4003d24:	003d4006 	br	4003228 <__alt_mem_onchip_memory2_0+0xfbffe068>
 4003d28:	d8802e17 	ldw	r2,184(sp)
 4003d2c:	8025883a 	mov	r18,r16
 4003d30:	d8002785 	stb	zero,158(sp)
 4003d34:	14000017 	ldw	r16,0(r2)
 4003d38:	e011883a 	mov	r8,fp
 4003d3c:	14c00104 	addi	r19,r2,4
 4003d40:	80042d26 	beq	r16,zero,4004df8 <___vfprintf_internal_r+0x1d58>
 4003d44:	d8c02a17 	ldw	r3,168(sp)
 4003d48:	1803e416 	blt	r3,zero,4004cdc <___vfprintf_internal_r+0x1c3c>
 4003d4c:	180d883a 	mov	r6,r3
 4003d50:	000b883a 	mov	r5,zero
 4003d54:	8009883a 	mov	r4,r16
 4003d58:	df003d15 	stw	fp,244(sp)
 4003d5c:	40085100 	call	4008510 <memchr>
 4003d60:	da003d17 	ldw	r8,244(sp)
 4003d64:	10046826 	beq	r2,zero,4004f08 <___vfprintf_internal_r+0x1e68>
 4003d68:	1405c83a 	sub	r2,r2,r16
 4003d6c:	d8802b15 	stw	r2,172(sp)
 4003d70:	1003e016 	blt	r2,zero,4004cf4 <___vfprintf_internal_r+0x1c54>
 4003d74:	df002783 	ldbu	fp,158(sp)
 4003d78:	d8802915 	stw	r2,164(sp)
 4003d7c:	dcc02e15 	stw	r19,184(sp)
 4003d80:	d8002a15 	stw	zero,168(sp)
 4003d84:	d8003215 	stw	zero,200(sp)
 4003d88:	003ea206 	br	4003814 <__alt_mem_onchip_memory2_0+0xfbffe654>
 4003d8c:	8025883a 	mov	r18,r16
 4003d90:	dc002903 	ldbu	r16,164(sp)
 4003d94:	e011883a 	mov	r8,fp
 4003d98:	84003fcc 	andi	r16,r16,255
 4003d9c:	803f8d26 	beq	r16,zero,4003bd4 <__alt_mem_onchip_memory2_0+0xfbffea14>
 4003da0:	d8c02b03 	ldbu	r3,172(sp)
 4003da4:	d8c02785 	stb	r3,158(sp)
 4003da8:	003f8a06 	br	4003bd4 <__alt_mem_onchip_memory2_0+0xfbffea14>
 4003dac:	8025883a 	mov	r18,r16
 4003db0:	dc002903 	ldbu	r16,164(sp)
 4003db4:	e011883a 	mov	r8,fp
 4003db8:	84003fcc 	andi	r16,r16,255
 4003dbc:	8005661e 	bne	r16,zero,4005358 <___vfprintf_internal_r+0x22b8>
 4003dc0:	01010074 	movhi	r4,1025
 4003dc4:	210f1604 	addi	r4,r4,15448
 4003dc8:	d9003915 	stw	r4,228(sp)
 4003dcc:	9080080c 	andi	r2,r18,32
 4003dd0:	103f9f1e 	bne	r2,zero,4003c50 <__alt_mem_onchip_memory2_0+0xfbffea90>
 4003dd4:	9080040c 	andi	r2,r18,16
 4003dd8:	1002eb26 	beq	r2,zero,4004988 <___vfprintf_internal_r+0x18e8>
 4003ddc:	d8802e17 	ldw	r2,184(sp)
 4003de0:	002d883a 	mov	r22,zero
 4003de4:	14c00017 	ldw	r19,0(r2)
 4003de8:	10800104 	addi	r2,r2,4
 4003dec:	d8802e15 	stw	r2,184(sp)
 4003df0:	003f9c06 	br	4003c64 <__alt_mem_onchip_memory2_0+0xfbffeaa4>
 4003df4:	d8802b07 	ldb	r2,172(sp)
 4003df8:	1002e11e 	bne	r2,zero,4004980 <___vfprintf_internal_r+0x18e0>
 4003dfc:	00c00044 	movi	r3,1
 4003e00:	d8c02905 	stb	r3,164(sp)
 4003e04:	00c00804 	movi	r3,32
 4003e08:	d8c02b05 	stb	r3,172(sp)
 4003e0c:	ac400007 	ldb	r17,0(r21)
 4003e10:	003d0506 	br	4003228 <__alt_mem_onchip_memory2_0+0xfbffe068>
 4003e14:	84000054 	ori	r16,r16,1
 4003e18:	ac400007 	ldb	r17,0(r21)
 4003e1c:	003d0206 	br	4003228 <__alt_mem_onchip_memory2_0+0xfbffe068>
 4003e20:	8025883a 	mov	r18,r16
 4003e24:	dc002903 	ldbu	r16,164(sp)
 4003e28:	e011883a 	mov	r8,fp
 4003e2c:	84003fcc 	andi	r16,r16,255
 4003e30:	803de726 	beq	r16,zero,40035d0 <__alt_mem_onchip_memory2_0+0xfbffe410>
 4003e34:	d8c02b03 	ldbu	r3,172(sp)
 4003e38:	d8c02785 	stb	r3,158(sp)
 4003e3c:	003de406 	br	40035d0 <__alt_mem_onchip_memory2_0+0xfbffe410>
 4003e40:	84001014 	ori	r16,r16,64
 4003e44:	ac400007 	ldb	r17,0(r21)
 4003e48:	003cf706 	br	4003228 <__alt_mem_onchip_memory2_0+0xfbffe068>
 4003e4c:	ac400007 	ldb	r17,0(r21)
 4003e50:	00801b04 	movi	r2,108
 4003e54:	88838f26 	beq	r17,r2,4004c94 <___vfprintf_internal_r+0x1bf4>
 4003e58:	84000414 	ori	r16,r16,16
 4003e5c:	003cf206 	br	4003228 <__alt_mem_onchip_memory2_0+0xfbffe068>
 4003e60:	8025883a 	mov	r18,r16
 4003e64:	dc002903 	ldbu	r16,164(sp)
 4003e68:	e011883a 	mov	r8,fp
 4003e6c:	84003fcc 	andi	r16,r16,255
 4003e70:	80053f1e 	bne	r16,zero,4005370 <___vfprintf_internal_r+0x22d0>
 4003e74:	9080080c 	andi	r2,r18,32
 4003e78:	1002d226 	beq	r2,zero,40049c4 <___vfprintf_internal_r+0x1924>
 4003e7c:	d9002e17 	ldw	r4,184(sp)
 4003e80:	d9402f17 	ldw	r5,188(sp)
 4003e84:	20800017 	ldw	r2,0(r4)
 4003e88:	2807d7fa 	srai	r3,r5,31
 4003e8c:	21000104 	addi	r4,r4,4
 4003e90:	d9002e15 	stw	r4,184(sp)
 4003e94:	11400015 	stw	r5,0(r2)
 4003e98:	10c00115 	stw	r3,4(r2)
 4003e9c:	003cb806 	br	4003180 <__alt_mem_onchip_memory2_0+0xfbffdfc0>
 4003ea0:	d8c02e17 	ldw	r3,184(sp)
 4003ea4:	d9002e17 	ldw	r4,184(sp)
 4003ea8:	8025883a 	mov	r18,r16
 4003eac:	18800017 	ldw	r2,0(r3)
 4003eb0:	21000104 	addi	r4,r4,4
 4003eb4:	00c00044 	movi	r3,1
 4003eb8:	e011883a 	mov	r8,fp
 4003ebc:	d8c02915 	stw	r3,164(sp)
 4003ec0:	d8002785 	stb	zero,158(sp)
 4003ec4:	d8801405 	stb	r2,80(sp)
 4003ec8:	d9002e15 	stw	r4,184(sp)
 4003ecc:	d8c02b15 	stw	r3,172(sp)
 4003ed0:	d8002a15 	stw	zero,168(sp)
 4003ed4:	d8003215 	stw	zero,200(sp)
 4003ed8:	dc001404 	addi	r16,sp,80
 4003edc:	0039883a 	mov	fp,zero
 4003ee0:	003e5306 	br	4003830 <__alt_mem_onchip_memory2_0+0xfbffe670>
 4003ee4:	01010074 	movhi	r4,1025
 4003ee8:	210f1604 	addi	r4,r4,15448
 4003eec:	0039883a 	mov	fp,zero
 4003ef0:	d9003915 	stw	r4,228(sp)
 4003ef4:	04401e04 	movi	r17,120
 4003ef8:	003f6906 	br	4003ca0 <__alt_mem_onchip_memory2_0+0xfbffeae0>
 4003efc:	8025883a 	mov	r18,r16
 4003f00:	dc002903 	ldbu	r16,164(sp)
 4003f04:	e011883a 	mov	r8,fp
 4003f08:	84003fcc 	andi	r16,r16,255
 4003f0c:	8005081e 	bne	r16,zero,4005330 <___vfprintf_internal_r+0x2290>
 4003f10:	883d6126 	beq	r17,zero,4003498 <__alt_mem_onchip_memory2_0+0xfbffe2d8>
 4003f14:	00c00044 	movi	r3,1
 4003f18:	d8c02915 	stw	r3,164(sp)
 4003f1c:	dc401405 	stb	r17,80(sp)
 4003f20:	d8002785 	stb	zero,158(sp)
 4003f24:	003fe906 	br	4003ecc <__alt_mem_onchip_memory2_0+0xfbffed0c>
 4003f28:	01410074 	movhi	r5,1025
 4003f2c:	294f1604 	addi	r5,r5,15448
 4003f30:	d9403915 	stw	r5,228(sp)
 4003f34:	d8c02e15 	stw	r3,184(sp)
 4003f38:	1025883a 	mov	r18,r2
 4003f3c:	04401e04 	movi	r17,120
 4003f40:	9d84b03a 	or	r2,r19,r22
 4003f44:	1000fc1e 	bne	r2,zero,4004338 <___vfprintf_internal_r+0x1298>
 4003f48:	0039883a 	mov	fp,zero
 4003f4c:	00800084 	movi	r2,2
 4003f50:	10803fcc 	andi	r2,r2,255
 4003f54:	00c00044 	movi	r3,1
 4003f58:	10c20f26 	beq	r2,r3,4004798 <___vfprintf_internal_r+0x16f8>
 4003f5c:	00c00084 	movi	r3,2
 4003f60:	10fd3326 	beq	r2,r3,4003430 <__alt_mem_onchip_memory2_0+0xfbffe270>
 4003f64:	003e0b06 	br	4003794 <__alt_mem_onchip_memory2_0+0xfbffe5d4>
 4003f68:	d8c02017 	ldw	r3,128(sp)
 4003f6c:	003e7106 	br	4003934 <__alt_mem_onchip_memory2_0+0xfbffe774>
 4003f70:	00801944 	movi	r2,101
 4003f74:	14407e0e 	bge	r2,r17,4004170 <___vfprintf_internal_r+0x10d0>
 4003f78:	d9003617 	ldw	r4,216(sp)
 4003f7c:	d9403817 	ldw	r5,224(sp)
 4003f80:	000d883a 	mov	r6,zero
 4003f84:	000f883a 	mov	r7,zero
 4003f88:	d8c03c15 	stw	r3,240(sp)
 4003f8c:	da003d15 	stw	r8,244(sp)
 4003f90:	400fc800 	call	400fc80 <__eqdf2>
 4003f94:	d8c03c17 	ldw	r3,240(sp)
 4003f98:	da003d17 	ldw	r8,244(sp)
 4003f9c:	1000f71e 	bne	r2,zero,400437c <___vfprintf_internal_r+0x12dc>
 4003fa0:	d8801f17 	ldw	r2,124(sp)
 4003fa4:	01010074 	movhi	r4,1025
 4003fa8:	210f1d04 	addi	r4,r4,15476
 4003fac:	18c00044 	addi	r3,r3,1
 4003fb0:	10800044 	addi	r2,r2,1
 4003fb4:	41000015 	stw	r4,0(r8)
 4003fb8:	01000044 	movi	r4,1
 4003fbc:	41000115 	stw	r4,4(r8)
 4003fc0:	d8c02015 	stw	r3,128(sp)
 4003fc4:	d8801f15 	stw	r2,124(sp)
 4003fc8:	010001c4 	movi	r4,7
 4003fcc:	2082b816 	blt	r4,r2,4004ab0 <___vfprintf_internal_r+0x1a10>
 4003fd0:	42000204 	addi	r8,r8,8
 4003fd4:	d8802617 	ldw	r2,152(sp)
 4003fd8:	d9403317 	ldw	r5,204(sp)
 4003fdc:	11400216 	blt	r2,r5,4003fe8 <___vfprintf_internal_r+0xf48>
 4003fe0:	9080004c 	andi	r2,r18,1
 4003fe4:	103eb326 	beq	r2,zero,4003ab4 <__alt_mem_onchip_memory2_0+0xfbffe8f4>
 4003fe8:	d8803717 	ldw	r2,220(sp)
 4003fec:	d9003417 	ldw	r4,208(sp)
 4003ff0:	d9403717 	ldw	r5,220(sp)
 4003ff4:	1887883a 	add	r3,r3,r2
 4003ff8:	d8801f17 	ldw	r2,124(sp)
 4003ffc:	41000015 	stw	r4,0(r8)
 4004000:	41400115 	stw	r5,4(r8)
 4004004:	10800044 	addi	r2,r2,1
 4004008:	d8c02015 	stw	r3,128(sp)
 400400c:	d8801f15 	stw	r2,124(sp)
 4004010:	010001c4 	movi	r4,7
 4004014:	20832916 	blt	r4,r2,4004cbc <___vfprintf_internal_r+0x1c1c>
 4004018:	42000204 	addi	r8,r8,8
 400401c:	d8803317 	ldw	r2,204(sp)
 4004020:	143fffc4 	addi	r16,r2,-1
 4004024:	043ea30e 	bge	zero,r16,4003ab4 <__alt_mem_onchip_memory2_0+0xfbffe8f4>
 4004028:	04400404 	movi	r17,16
 400402c:	d8801f17 	ldw	r2,124(sp)
 4004030:	8c00880e 	bge	r17,r16,4004254 <___vfprintf_internal_r+0x11b4>
 4004034:	01410074 	movhi	r5,1025
 4004038:	294f2584 	addi	r5,r5,15510
 400403c:	d9402c15 	stw	r5,176(sp)
 4004040:	058001c4 	movi	r22,7
 4004044:	dcc02d17 	ldw	r19,180(sp)
 4004048:	00000306 	br	4004058 <___vfprintf_internal_r+0xfb8>
 400404c:	42000204 	addi	r8,r8,8
 4004050:	843ffc04 	addi	r16,r16,-16
 4004054:	8c00820e 	bge	r17,r16,4004260 <___vfprintf_internal_r+0x11c0>
 4004058:	18c00404 	addi	r3,r3,16
 400405c:	10800044 	addi	r2,r2,1
 4004060:	45000015 	stw	r20,0(r8)
 4004064:	44400115 	stw	r17,4(r8)
 4004068:	d8c02015 	stw	r3,128(sp)
 400406c:	d8801f15 	stw	r2,124(sp)
 4004070:	b0bff60e 	bge	r22,r2,400404c <__alt_mem_onchip_memory2_0+0xfbffee8c>
 4004074:	d9801e04 	addi	r6,sp,120
 4004078:	b80b883a 	mov	r5,r23
 400407c:	9809883a 	mov	r4,r19
 4004080:	400b2680 	call	400b268 <__sprint_r>
 4004084:	103d0a1e 	bne	r2,zero,40034b0 <__alt_mem_onchip_memory2_0+0xfbffe2f0>
 4004088:	d8c02017 	ldw	r3,128(sp)
 400408c:	d8801f17 	ldw	r2,124(sp)
 4004090:	da000404 	addi	r8,sp,16
 4004094:	003fee06 	br	4004050 <__alt_mem_onchip_memory2_0+0xfbffee90>
 4004098:	d9403117 	ldw	r5,196(sp)
 400409c:	d8802917 	ldw	r2,164(sp)
 40040a0:	28adc83a 	sub	r22,r5,r2
 40040a4:	05be410e 	bge	zero,r22,40039ac <__alt_mem_onchip_memory2_0+0xfbffe7ec>
 40040a8:	07000404 	movi	fp,16
 40040ac:	d8801f17 	ldw	r2,124(sp)
 40040b0:	e5838f0e 	bge	fp,r22,4004ef0 <___vfprintf_internal_r+0x1e50>
 40040b4:	01410074 	movhi	r5,1025
 40040b8:	294f2584 	addi	r5,r5,15510
 40040bc:	dc403015 	stw	r17,192(sp)
 40040c0:	d9402c15 	stw	r5,176(sp)
 40040c4:	b023883a 	mov	r17,r22
 40040c8:	04c001c4 	movi	r19,7
 40040cc:	a82d883a 	mov	r22,r21
 40040d0:	902b883a 	mov	r21,r18
 40040d4:	8025883a 	mov	r18,r16
 40040d8:	dc002d17 	ldw	r16,180(sp)
 40040dc:	00000306 	br	40040ec <___vfprintf_internal_r+0x104c>
 40040e0:	8c7ffc04 	addi	r17,r17,-16
 40040e4:	42000204 	addi	r8,r8,8
 40040e8:	e440110e 	bge	fp,r17,4004130 <___vfprintf_internal_r+0x1090>
 40040ec:	18c00404 	addi	r3,r3,16
 40040f0:	10800044 	addi	r2,r2,1
 40040f4:	45000015 	stw	r20,0(r8)
 40040f8:	47000115 	stw	fp,4(r8)
 40040fc:	d8c02015 	stw	r3,128(sp)
 4004100:	d8801f15 	stw	r2,124(sp)
 4004104:	98bff60e 	bge	r19,r2,40040e0 <__alt_mem_onchip_memory2_0+0xfbffef20>
 4004108:	d9801e04 	addi	r6,sp,120
 400410c:	b80b883a 	mov	r5,r23
 4004110:	8009883a 	mov	r4,r16
 4004114:	400b2680 	call	400b268 <__sprint_r>
 4004118:	103ce51e 	bne	r2,zero,40034b0 <__alt_mem_onchip_memory2_0+0xfbffe2f0>
 400411c:	8c7ffc04 	addi	r17,r17,-16
 4004120:	d8c02017 	ldw	r3,128(sp)
 4004124:	d8801f17 	ldw	r2,124(sp)
 4004128:	da000404 	addi	r8,sp,16
 400412c:	e47fef16 	blt	fp,r17,40040ec <__alt_mem_onchip_memory2_0+0xfbffef2c>
 4004130:	9021883a 	mov	r16,r18
 4004134:	a825883a 	mov	r18,r21
 4004138:	b02b883a 	mov	r21,r22
 400413c:	882d883a 	mov	r22,r17
 4004140:	dc403017 	ldw	r17,192(sp)
 4004144:	d9002c17 	ldw	r4,176(sp)
 4004148:	1d87883a 	add	r3,r3,r22
 400414c:	10800044 	addi	r2,r2,1
 4004150:	41000015 	stw	r4,0(r8)
 4004154:	45800115 	stw	r22,4(r8)
 4004158:	d8c02015 	stw	r3,128(sp)
 400415c:	d8801f15 	stw	r2,124(sp)
 4004160:	010001c4 	movi	r4,7
 4004164:	20818e16 	blt	r4,r2,40047a0 <___vfprintf_internal_r+0x1700>
 4004168:	42000204 	addi	r8,r8,8
 400416c:	003e0f06 	br	40039ac <__alt_mem_onchip_memory2_0+0xfbffe7ec>
 4004170:	d9403317 	ldw	r5,204(sp)
 4004174:	00800044 	movi	r2,1
 4004178:	18c00044 	addi	r3,r3,1
 400417c:	1141530e 	bge	r2,r5,40046cc <___vfprintf_internal_r+0x162c>
 4004180:	dc401f17 	ldw	r17,124(sp)
 4004184:	00800044 	movi	r2,1
 4004188:	40800115 	stw	r2,4(r8)
 400418c:	8c400044 	addi	r17,r17,1
 4004190:	44000015 	stw	r16,0(r8)
 4004194:	d8c02015 	stw	r3,128(sp)
 4004198:	dc401f15 	stw	r17,124(sp)
 400419c:	008001c4 	movi	r2,7
 40041a0:	14416b16 	blt	r2,r17,4004750 <___vfprintf_internal_r+0x16b0>
 40041a4:	42000204 	addi	r8,r8,8
 40041a8:	d8803717 	ldw	r2,220(sp)
 40041ac:	d9003417 	ldw	r4,208(sp)
 40041b0:	8c400044 	addi	r17,r17,1
 40041b4:	10c7883a 	add	r3,r2,r3
 40041b8:	40800115 	stw	r2,4(r8)
 40041bc:	41000015 	stw	r4,0(r8)
 40041c0:	d8c02015 	stw	r3,128(sp)
 40041c4:	dc401f15 	stw	r17,124(sp)
 40041c8:	008001c4 	movi	r2,7
 40041cc:	14416916 	blt	r2,r17,4004774 <___vfprintf_internal_r+0x16d4>
 40041d0:	45800204 	addi	r22,r8,8
 40041d4:	d9003617 	ldw	r4,216(sp)
 40041d8:	d9403817 	ldw	r5,224(sp)
 40041dc:	000d883a 	mov	r6,zero
 40041e0:	000f883a 	mov	r7,zero
 40041e4:	d8c03c15 	stw	r3,240(sp)
 40041e8:	400fc800 	call	400fc80 <__eqdf2>
 40041ec:	d8c03c17 	ldw	r3,240(sp)
 40041f0:	1000bc26 	beq	r2,zero,40044e4 <___vfprintf_internal_r+0x1444>
 40041f4:	d9403317 	ldw	r5,204(sp)
 40041f8:	84000044 	addi	r16,r16,1
 40041fc:	8c400044 	addi	r17,r17,1
 4004200:	28bfffc4 	addi	r2,r5,-1
 4004204:	1887883a 	add	r3,r3,r2
 4004208:	b0800115 	stw	r2,4(r22)
 400420c:	b4000015 	stw	r16,0(r22)
 4004210:	d8c02015 	stw	r3,128(sp)
 4004214:	dc401f15 	stw	r17,124(sp)
 4004218:	008001c4 	movi	r2,7
 400421c:	14414316 	blt	r2,r17,400472c <___vfprintf_internal_r+0x168c>
 4004220:	b5800204 	addi	r22,r22,8
 4004224:	d9003a17 	ldw	r4,232(sp)
 4004228:	df0022c4 	addi	fp,sp,139
 400422c:	8c400044 	addi	r17,r17,1
 4004230:	20c7883a 	add	r3,r4,r3
 4004234:	b7000015 	stw	fp,0(r22)
 4004238:	b1000115 	stw	r4,4(r22)
 400423c:	d8c02015 	stw	r3,128(sp)
 4004240:	dc401f15 	stw	r17,124(sp)
 4004244:	008001c4 	movi	r2,7
 4004248:	14400e16 	blt	r2,r17,4004284 <___vfprintf_internal_r+0x11e4>
 400424c:	b2000204 	addi	r8,r22,8
 4004250:	003e1806 	br	4003ab4 <__alt_mem_onchip_memory2_0+0xfbffe8f4>
 4004254:	01010074 	movhi	r4,1025
 4004258:	210f2584 	addi	r4,r4,15510
 400425c:	d9002c15 	stw	r4,176(sp)
 4004260:	d9002c17 	ldw	r4,176(sp)
 4004264:	1c07883a 	add	r3,r3,r16
 4004268:	44000115 	stw	r16,4(r8)
 400426c:	41000015 	stw	r4,0(r8)
 4004270:	10800044 	addi	r2,r2,1
 4004274:	d8c02015 	stw	r3,128(sp)
 4004278:	d8801f15 	stw	r2,124(sp)
 400427c:	010001c4 	movi	r4,7
 4004280:	20be0b0e 	bge	r4,r2,4003ab0 <__alt_mem_onchip_memory2_0+0xfbffe8f0>
 4004284:	d9002d17 	ldw	r4,180(sp)
 4004288:	d9801e04 	addi	r6,sp,120
 400428c:	b80b883a 	mov	r5,r23
 4004290:	400b2680 	call	400b268 <__sprint_r>
 4004294:	103c861e 	bne	r2,zero,40034b0 <__alt_mem_onchip_memory2_0+0xfbffe2f0>
 4004298:	d8c02017 	ldw	r3,128(sp)
 400429c:	da000404 	addi	r8,sp,16
 40042a0:	003e0406 	br	4003ab4 <__alt_mem_onchip_memory2_0+0xfbffe8f4>
 40042a4:	d9002d17 	ldw	r4,180(sp)
 40042a8:	d9801e04 	addi	r6,sp,120
 40042ac:	b80b883a 	mov	r5,r23
 40042b0:	400b2680 	call	400b268 <__sprint_r>
 40042b4:	103e3b26 	beq	r2,zero,4003ba4 <__alt_mem_onchip_memory2_0+0xfbffe9e4>
 40042b8:	003c7d06 	br	40034b0 <__alt_mem_onchip_memory2_0+0xfbffe2f0>
 40042bc:	d9002d17 	ldw	r4,180(sp)
 40042c0:	d9801e04 	addi	r6,sp,120
 40042c4:	b80b883a 	mov	r5,r23
 40042c8:	400b2680 	call	400b268 <__sprint_r>
 40042cc:	103c781e 	bne	r2,zero,40034b0 <__alt_mem_onchip_memory2_0+0xfbffe2f0>
 40042d0:	d8c02017 	ldw	r3,128(sp)
 40042d4:	da000404 	addi	r8,sp,16
 40042d8:	003de906 	br	4003a80 <__alt_mem_onchip_memory2_0+0xfbffe8c0>
 40042dc:	d9002d17 	ldw	r4,180(sp)
 40042e0:	d9801e04 	addi	r6,sp,120
 40042e4:	b80b883a 	mov	r5,r23
 40042e8:	400b2680 	call	400b268 <__sprint_r>
 40042ec:	103c701e 	bne	r2,zero,40034b0 <__alt_mem_onchip_memory2_0+0xfbffe2f0>
 40042f0:	d8c02017 	ldw	r3,128(sp)
 40042f4:	da000404 	addi	r8,sp,16
 40042f8:	003d9b06 	br	4003968 <__alt_mem_onchip_memory2_0+0xfbffe7a8>
 40042fc:	d9002d17 	ldw	r4,180(sp)
 4004300:	d9801e04 	addi	r6,sp,120
 4004304:	b80b883a 	mov	r5,r23
 4004308:	400b2680 	call	400b268 <__sprint_r>
 400430c:	103c681e 	bne	r2,zero,40034b0 <__alt_mem_onchip_memory2_0+0xfbffe2f0>
 4004310:	d8c02017 	ldw	r3,128(sp)
 4004314:	da000404 	addi	r8,sp,16
 4004318:	003da106 	br	40039a0 <__alt_mem_onchip_memory2_0+0xfbffe7e0>
 400431c:	d9402a17 	ldw	r5,168(sp)
 4004320:	d8002785 	stb	zero,158(sp)
 4004324:	283f0616 	blt	r5,zero,4003f40 <__alt_mem_onchip_memory2_0+0xfbffed80>
 4004328:	00ffdfc4 	movi	r3,-129
 400432c:	9d84b03a 	or	r2,r19,r22
 4004330:	90e4703a 	and	r18,r18,r3
 4004334:	103c3b26 	beq	r2,zero,4003424 <__alt_mem_onchip_memory2_0+0xfbffe264>
 4004338:	0039883a 	mov	fp,zero
 400433c:	003e5806 	br	4003ca0 <__alt_mem_onchip_memory2_0+0xfbffeae0>
 4004340:	9080040c 	andi	r2,r18,16
 4004344:	1001b326 	beq	r2,zero,4004a14 <___vfprintf_internal_r+0x1974>
 4004348:	d8c02e17 	ldw	r3,184(sp)
 400434c:	d9002a17 	ldw	r4,168(sp)
 4004350:	d8002785 	stb	zero,158(sp)
 4004354:	18800104 	addi	r2,r3,4
 4004358:	1cc00017 	ldw	r19,0(r3)
 400435c:	002d883a 	mov	r22,zero
 4004360:	2001b516 	blt	r4,zero,4004a38 <___vfprintf_internal_r+0x1998>
 4004364:	00ffdfc4 	movi	r3,-129
 4004368:	d8802e15 	stw	r2,184(sp)
 400436c:	90e4703a 	and	r18,r18,r3
 4004370:	983d0526 	beq	r19,zero,4003788 <__alt_mem_onchip_memory2_0+0xfbffe5c8>
 4004374:	0039883a 	mov	fp,zero
 4004378:	003d0806 	br	400379c <__alt_mem_onchip_memory2_0+0xfbffe5dc>
 400437c:	dc402617 	ldw	r17,152(sp)
 4004380:	0441d30e 	bge	zero,r17,4004ad0 <___vfprintf_internal_r+0x1a30>
 4004384:	dc403217 	ldw	r17,200(sp)
 4004388:	d8803317 	ldw	r2,204(sp)
 400438c:	1440010e 	bge	r2,r17,4004394 <___vfprintf_internal_r+0x12f4>
 4004390:	1023883a 	mov	r17,r2
 4004394:	04400a0e 	bge	zero,r17,40043c0 <___vfprintf_internal_r+0x1320>
 4004398:	d8801f17 	ldw	r2,124(sp)
 400439c:	1c47883a 	add	r3,r3,r17
 40043a0:	44000015 	stw	r16,0(r8)
 40043a4:	10800044 	addi	r2,r2,1
 40043a8:	44400115 	stw	r17,4(r8)
 40043ac:	d8c02015 	stw	r3,128(sp)
 40043b0:	d8801f15 	stw	r2,124(sp)
 40043b4:	010001c4 	movi	r4,7
 40043b8:	20826516 	blt	r4,r2,4004d50 <___vfprintf_internal_r+0x1cb0>
 40043bc:	42000204 	addi	r8,r8,8
 40043c0:	88026116 	blt	r17,zero,4004d48 <___vfprintf_internal_r+0x1ca8>
 40043c4:	d9003217 	ldw	r4,200(sp)
 40043c8:	2463c83a 	sub	r17,r4,r17
 40043cc:	04407b0e 	bge	zero,r17,40045bc <___vfprintf_internal_r+0x151c>
 40043d0:	05800404 	movi	r22,16
 40043d4:	d8801f17 	ldw	r2,124(sp)
 40043d8:	b4419d0e 	bge	r22,r17,4004a50 <___vfprintf_internal_r+0x19b0>
 40043dc:	01010074 	movhi	r4,1025
 40043e0:	210f2584 	addi	r4,r4,15510
 40043e4:	d9002c15 	stw	r4,176(sp)
 40043e8:	070001c4 	movi	fp,7
 40043ec:	dcc02d17 	ldw	r19,180(sp)
 40043f0:	00000306 	br	4004400 <___vfprintf_internal_r+0x1360>
 40043f4:	42000204 	addi	r8,r8,8
 40043f8:	8c7ffc04 	addi	r17,r17,-16
 40043fc:	b441970e 	bge	r22,r17,4004a5c <___vfprintf_internal_r+0x19bc>
 4004400:	18c00404 	addi	r3,r3,16
 4004404:	10800044 	addi	r2,r2,1
 4004408:	45000015 	stw	r20,0(r8)
 400440c:	45800115 	stw	r22,4(r8)
 4004410:	d8c02015 	stw	r3,128(sp)
 4004414:	d8801f15 	stw	r2,124(sp)
 4004418:	e0bff60e 	bge	fp,r2,40043f4 <__alt_mem_onchip_memory2_0+0xfbfff234>
 400441c:	d9801e04 	addi	r6,sp,120
 4004420:	b80b883a 	mov	r5,r23
 4004424:	9809883a 	mov	r4,r19
 4004428:	400b2680 	call	400b268 <__sprint_r>
 400442c:	103c201e 	bne	r2,zero,40034b0 <__alt_mem_onchip_memory2_0+0xfbffe2f0>
 4004430:	d8c02017 	ldw	r3,128(sp)
 4004434:	d8801f17 	ldw	r2,124(sp)
 4004438:	da000404 	addi	r8,sp,16
 400443c:	003fee06 	br	40043f8 <__alt_mem_onchip_memory2_0+0xfbfff238>
 4004440:	d9002d17 	ldw	r4,180(sp)
 4004444:	d9801e04 	addi	r6,sp,120
 4004448:	b80b883a 	mov	r5,r23
 400444c:	400b2680 	call	400b268 <__sprint_r>
 4004450:	103c171e 	bne	r2,zero,40034b0 <__alt_mem_onchip_memory2_0+0xfbffe2f0>
 4004454:	d8c02017 	ldw	r3,128(sp)
 4004458:	df002787 	ldb	fp,158(sp)
 400445c:	da000404 	addi	r8,sp,16
 4004460:	003d3406 	br	4003934 <__alt_mem_onchip_memory2_0+0xfbffe774>
 4004464:	9080040c 	andi	r2,r18,16
 4004468:	10016126 	beq	r2,zero,40049f0 <___vfprintf_internal_r+0x1950>
 400446c:	d9402e17 	ldw	r5,184(sp)
 4004470:	2cc00017 	ldw	r19,0(r5)
 4004474:	29400104 	addi	r5,r5,4
 4004478:	d9402e15 	stw	r5,184(sp)
 400447c:	982dd7fa 	srai	r22,r19,31
 4004480:	b005883a 	mov	r2,r22
 4004484:	003c5a06 	br	40035f0 <__alt_mem_onchip_memory2_0+0xfbffe430>
 4004488:	9080040c 	andi	r2,r18,16
 400448c:	10003526 	beq	r2,zero,4004564 <___vfprintf_internal_r+0x14c4>
 4004490:	d8c02e17 	ldw	r3,184(sp)
 4004494:	d9002a17 	ldw	r4,168(sp)
 4004498:	d8002785 	stb	zero,158(sp)
 400449c:	18800104 	addi	r2,r3,4
 40044a0:	1cc00017 	ldw	r19,0(r3)
 40044a4:	002d883a 	mov	r22,zero
 40044a8:	20003716 	blt	r4,zero,4004588 <___vfprintf_internal_r+0x14e8>
 40044ac:	00ffdfc4 	movi	r3,-129
 40044b0:	d8802e15 	stw	r2,184(sp)
 40044b4:	90e4703a 	and	r18,r18,r3
 40044b8:	0039883a 	mov	fp,zero
 40044bc:	983dd426 	beq	r19,zero,4003c10 <__alt_mem_onchip_memory2_0+0xfbffea50>
 40044c0:	00800244 	movi	r2,9
 40044c4:	14fc5336 	bltu	r2,r19,4003614 <__alt_mem_onchip_memory2_0+0xfbffe454>
 40044c8:	d8c02817 	ldw	r3,160(sp)
 40044cc:	dc001dc4 	addi	r16,sp,119
 40044d0:	9cc00c04 	addi	r19,r19,48
 40044d4:	1c07c83a 	sub	r3,r3,r16
 40044d8:	dcc01dc5 	stb	r19,119(sp)
 40044dc:	d8c02b15 	stw	r3,172(sp)
 40044e0:	003cc606 	br	40037fc <__alt_mem_onchip_memory2_0+0xfbffe63c>
 40044e4:	d8803317 	ldw	r2,204(sp)
 40044e8:	143fffc4 	addi	r16,r2,-1
 40044ec:	043f4d0e 	bge	zero,r16,4004224 <__alt_mem_onchip_memory2_0+0xfbfff064>
 40044f0:	07000404 	movi	fp,16
 40044f4:	e400810e 	bge	fp,r16,40046fc <___vfprintf_internal_r+0x165c>
 40044f8:	01410074 	movhi	r5,1025
 40044fc:	294f2584 	addi	r5,r5,15510
 4004500:	d9402c15 	stw	r5,176(sp)
 4004504:	01c001c4 	movi	r7,7
 4004508:	dcc02d17 	ldw	r19,180(sp)
 400450c:	00000306 	br	400451c <___vfprintf_internal_r+0x147c>
 4004510:	b5800204 	addi	r22,r22,8
 4004514:	843ffc04 	addi	r16,r16,-16
 4004518:	e4007b0e 	bge	fp,r16,4004708 <___vfprintf_internal_r+0x1668>
 400451c:	18c00404 	addi	r3,r3,16
 4004520:	8c400044 	addi	r17,r17,1
 4004524:	b5000015 	stw	r20,0(r22)
 4004528:	b7000115 	stw	fp,4(r22)
 400452c:	d8c02015 	stw	r3,128(sp)
 4004530:	dc401f15 	stw	r17,124(sp)
 4004534:	3c7ff60e 	bge	r7,r17,4004510 <__alt_mem_onchip_memory2_0+0xfbfff350>
 4004538:	d9801e04 	addi	r6,sp,120
 400453c:	b80b883a 	mov	r5,r23
 4004540:	9809883a 	mov	r4,r19
 4004544:	d9c03c15 	stw	r7,240(sp)
 4004548:	400b2680 	call	400b268 <__sprint_r>
 400454c:	d9c03c17 	ldw	r7,240(sp)
 4004550:	103bd71e 	bne	r2,zero,40034b0 <__alt_mem_onchip_memory2_0+0xfbffe2f0>
 4004554:	d8c02017 	ldw	r3,128(sp)
 4004558:	dc401f17 	ldw	r17,124(sp)
 400455c:	dd800404 	addi	r22,sp,16
 4004560:	003fec06 	br	4004514 <__alt_mem_onchip_memory2_0+0xfbfff354>
 4004564:	9080100c 	andi	r2,r18,64
 4004568:	d8002785 	stb	zero,158(sp)
 400456c:	10010e26 	beq	r2,zero,40049a8 <___vfprintf_internal_r+0x1908>
 4004570:	d9402e17 	ldw	r5,184(sp)
 4004574:	d8c02a17 	ldw	r3,168(sp)
 4004578:	002d883a 	mov	r22,zero
 400457c:	28800104 	addi	r2,r5,4
 4004580:	2cc0000b 	ldhu	r19,0(r5)
 4004584:	183fc90e 	bge	r3,zero,40044ac <__alt_mem_onchip_memory2_0+0xfbfff2ec>
 4004588:	d8802e15 	stw	r2,184(sp)
 400458c:	0039883a 	mov	fp,zero
 4004590:	9d84b03a 	or	r2,r19,r22
 4004594:	103c1e1e 	bne	r2,zero,4003610 <__alt_mem_onchip_memory2_0+0xfbffe450>
 4004598:	00800044 	movi	r2,1
 400459c:	003e6c06 	br	4003f50 <__alt_mem_onchip_memory2_0+0xfbffed90>
 40045a0:	d9002d17 	ldw	r4,180(sp)
 40045a4:	d9801e04 	addi	r6,sp,120
 40045a8:	b80b883a 	mov	r5,r23
 40045ac:	400b2680 	call	400b268 <__sprint_r>
 40045b0:	103bbf1e 	bne	r2,zero,40034b0 <__alt_mem_onchip_memory2_0+0xfbffe2f0>
 40045b4:	d8c02017 	ldw	r3,128(sp)
 40045b8:	da000404 	addi	r8,sp,16
 40045bc:	d9003217 	ldw	r4,200(sp)
 40045c0:	d8802617 	ldw	r2,152(sp)
 40045c4:	d9403317 	ldw	r5,204(sp)
 40045c8:	8123883a 	add	r17,r16,r4
 40045cc:	11400216 	blt	r2,r5,40045d8 <___vfprintf_internal_r+0x1538>
 40045d0:	9100004c 	andi	r4,r18,1
 40045d4:	20000d26 	beq	r4,zero,400460c <___vfprintf_internal_r+0x156c>
 40045d8:	d9003717 	ldw	r4,220(sp)
 40045dc:	d9403417 	ldw	r5,208(sp)
 40045e0:	1907883a 	add	r3,r3,r4
 40045e4:	d9001f17 	ldw	r4,124(sp)
 40045e8:	41400015 	stw	r5,0(r8)
 40045ec:	d9403717 	ldw	r5,220(sp)
 40045f0:	21000044 	addi	r4,r4,1
 40045f4:	d8c02015 	stw	r3,128(sp)
 40045f8:	41400115 	stw	r5,4(r8)
 40045fc:	d9001f15 	stw	r4,124(sp)
 4004600:	014001c4 	movi	r5,7
 4004604:	2901e816 	blt	r5,r4,4004da8 <___vfprintf_internal_r+0x1d08>
 4004608:	42000204 	addi	r8,r8,8
 400460c:	d9003317 	ldw	r4,204(sp)
 4004610:	8121883a 	add	r16,r16,r4
 4004614:	2085c83a 	sub	r2,r4,r2
 4004618:	8461c83a 	sub	r16,r16,r17
 400461c:	1400010e 	bge	r2,r16,4004624 <___vfprintf_internal_r+0x1584>
 4004620:	1021883a 	mov	r16,r2
 4004624:	04000a0e 	bge	zero,r16,4004650 <___vfprintf_internal_r+0x15b0>
 4004628:	d9001f17 	ldw	r4,124(sp)
 400462c:	1c07883a 	add	r3,r3,r16
 4004630:	44400015 	stw	r17,0(r8)
 4004634:	21000044 	addi	r4,r4,1
 4004638:	44000115 	stw	r16,4(r8)
 400463c:	d8c02015 	stw	r3,128(sp)
 4004640:	d9001f15 	stw	r4,124(sp)
 4004644:	014001c4 	movi	r5,7
 4004648:	2901fb16 	blt	r5,r4,4004e38 <___vfprintf_internal_r+0x1d98>
 400464c:	42000204 	addi	r8,r8,8
 4004650:	8001f716 	blt	r16,zero,4004e30 <___vfprintf_internal_r+0x1d90>
 4004654:	1421c83a 	sub	r16,r2,r16
 4004658:	043d160e 	bge	zero,r16,4003ab4 <__alt_mem_onchip_memory2_0+0xfbffe8f4>
 400465c:	04400404 	movi	r17,16
 4004660:	d8801f17 	ldw	r2,124(sp)
 4004664:	8c3efb0e 	bge	r17,r16,4004254 <__alt_mem_onchip_memory2_0+0xfbfff094>
 4004668:	01410074 	movhi	r5,1025
 400466c:	294f2584 	addi	r5,r5,15510
 4004670:	d9402c15 	stw	r5,176(sp)
 4004674:	058001c4 	movi	r22,7
 4004678:	dcc02d17 	ldw	r19,180(sp)
 400467c:	00000306 	br	400468c <___vfprintf_internal_r+0x15ec>
 4004680:	42000204 	addi	r8,r8,8
 4004684:	843ffc04 	addi	r16,r16,-16
 4004688:	8c3ef50e 	bge	r17,r16,4004260 <__alt_mem_onchip_memory2_0+0xfbfff0a0>
 400468c:	18c00404 	addi	r3,r3,16
 4004690:	10800044 	addi	r2,r2,1
 4004694:	45000015 	stw	r20,0(r8)
 4004698:	44400115 	stw	r17,4(r8)
 400469c:	d8c02015 	stw	r3,128(sp)
 40046a0:	d8801f15 	stw	r2,124(sp)
 40046a4:	b0bff60e 	bge	r22,r2,4004680 <__alt_mem_onchip_memory2_0+0xfbfff4c0>
 40046a8:	d9801e04 	addi	r6,sp,120
 40046ac:	b80b883a 	mov	r5,r23
 40046b0:	9809883a 	mov	r4,r19
 40046b4:	400b2680 	call	400b268 <__sprint_r>
 40046b8:	103b7d1e 	bne	r2,zero,40034b0 <__alt_mem_onchip_memory2_0+0xfbffe2f0>
 40046bc:	d8c02017 	ldw	r3,128(sp)
 40046c0:	d8801f17 	ldw	r2,124(sp)
 40046c4:	da000404 	addi	r8,sp,16
 40046c8:	003fee06 	br	4004684 <__alt_mem_onchip_memory2_0+0xfbfff4c4>
 40046cc:	9088703a 	and	r4,r18,r2
 40046d0:	203eab1e 	bne	r4,zero,4004180 <__alt_mem_onchip_memory2_0+0xfbffefc0>
 40046d4:	dc401f17 	ldw	r17,124(sp)
 40046d8:	40800115 	stw	r2,4(r8)
 40046dc:	44000015 	stw	r16,0(r8)
 40046e0:	8c400044 	addi	r17,r17,1
 40046e4:	d8c02015 	stw	r3,128(sp)
 40046e8:	dc401f15 	stw	r17,124(sp)
 40046ec:	008001c4 	movi	r2,7
 40046f0:	14400e16 	blt	r2,r17,400472c <___vfprintf_internal_r+0x168c>
 40046f4:	45800204 	addi	r22,r8,8
 40046f8:	003eca06 	br	4004224 <__alt_mem_onchip_memory2_0+0xfbfff064>
 40046fc:	01010074 	movhi	r4,1025
 4004700:	210f2584 	addi	r4,r4,15510
 4004704:	d9002c15 	stw	r4,176(sp)
 4004708:	d8802c17 	ldw	r2,176(sp)
 400470c:	1c07883a 	add	r3,r3,r16
 4004710:	8c400044 	addi	r17,r17,1
 4004714:	b0800015 	stw	r2,0(r22)
 4004718:	b4000115 	stw	r16,4(r22)
 400471c:	d8c02015 	stw	r3,128(sp)
 4004720:	dc401f15 	stw	r17,124(sp)
 4004724:	008001c4 	movi	r2,7
 4004728:	147ebd0e 	bge	r2,r17,4004220 <__alt_mem_onchip_memory2_0+0xfbfff060>
 400472c:	d9002d17 	ldw	r4,180(sp)
 4004730:	d9801e04 	addi	r6,sp,120
 4004734:	b80b883a 	mov	r5,r23
 4004738:	400b2680 	call	400b268 <__sprint_r>
 400473c:	103b5c1e 	bne	r2,zero,40034b0 <__alt_mem_onchip_memory2_0+0xfbffe2f0>
 4004740:	d8c02017 	ldw	r3,128(sp)
 4004744:	dc401f17 	ldw	r17,124(sp)
 4004748:	dd800404 	addi	r22,sp,16
 400474c:	003eb506 	br	4004224 <__alt_mem_onchip_memory2_0+0xfbfff064>
 4004750:	d9002d17 	ldw	r4,180(sp)
 4004754:	d9801e04 	addi	r6,sp,120
 4004758:	b80b883a 	mov	r5,r23
 400475c:	400b2680 	call	400b268 <__sprint_r>
 4004760:	103b531e 	bne	r2,zero,40034b0 <__alt_mem_onchip_memory2_0+0xfbffe2f0>
 4004764:	d8c02017 	ldw	r3,128(sp)
 4004768:	dc401f17 	ldw	r17,124(sp)
 400476c:	da000404 	addi	r8,sp,16
 4004770:	003e8d06 	br	40041a8 <__alt_mem_onchip_memory2_0+0xfbffefe8>
 4004774:	d9002d17 	ldw	r4,180(sp)
 4004778:	d9801e04 	addi	r6,sp,120
 400477c:	b80b883a 	mov	r5,r23
 4004780:	400b2680 	call	400b268 <__sprint_r>
 4004784:	103b4a1e 	bne	r2,zero,40034b0 <__alt_mem_onchip_memory2_0+0xfbffe2f0>
 4004788:	d8c02017 	ldw	r3,128(sp)
 400478c:	dc401f17 	ldw	r17,124(sp)
 4004790:	dd800404 	addi	r22,sp,16
 4004794:	003e8f06 	br	40041d4 <__alt_mem_onchip_memory2_0+0xfbfff014>
 4004798:	0027883a 	mov	r19,zero
 400479c:	003f4a06 	br	40044c8 <__alt_mem_onchip_memory2_0+0xfbfff308>
 40047a0:	d9002d17 	ldw	r4,180(sp)
 40047a4:	d9801e04 	addi	r6,sp,120
 40047a8:	b80b883a 	mov	r5,r23
 40047ac:	400b2680 	call	400b268 <__sprint_r>
 40047b0:	103b3f1e 	bne	r2,zero,40034b0 <__alt_mem_onchip_memory2_0+0xfbffe2f0>
 40047b4:	d8c02017 	ldw	r3,128(sp)
 40047b8:	da000404 	addi	r8,sp,16
 40047bc:	003c7b06 	br	40039ac <__alt_mem_onchip_memory2_0+0xfbffe7ec>
 40047c0:	d9402a17 	ldw	r5,168(sp)
 40047c4:	04e7c83a 	sub	r19,zero,r19
 40047c8:	07000b44 	movi	fp,45
 40047cc:	9804c03a 	cmpne	r2,r19,zero
 40047d0:	05adc83a 	sub	r22,zero,r22
 40047d4:	df002785 	stb	fp,158(sp)
 40047d8:	b0adc83a 	sub	r22,r22,r2
 40047dc:	28017b16 	blt	r5,zero,4004dcc <___vfprintf_internal_r+0x1d2c>
 40047e0:	00bfdfc4 	movi	r2,-129
 40047e4:	90a4703a 	and	r18,r18,r2
 40047e8:	003b8906 	br	4003610 <__alt_mem_onchip_memory2_0+0xfbffe450>
 40047ec:	d9003617 	ldw	r4,216(sp)
 40047f0:	d9403817 	ldw	r5,224(sp)
 40047f4:	da003d15 	stw	r8,244(sp)
 40047f8:	400991c0 	call	400991c <__fpclassifyd>
 40047fc:	da003d17 	ldw	r8,244(sp)
 4004800:	1000f026 	beq	r2,zero,4004bc4 <___vfprintf_internal_r+0x1b24>
 4004804:	d9002a17 	ldw	r4,168(sp)
 4004808:	05bff7c4 	movi	r22,-33
 400480c:	00bfffc4 	movi	r2,-1
 4004810:	8dac703a 	and	r22,r17,r22
 4004814:	20820026 	beq	r4,r2,4005018 <___vfprintf_internal_r+0x1f78>
 4004818:	008011c4 	movi	r2,71
 400481c:	b081f726 	beq	r22,r2,4004ffc <___vfprintf_internal_r+0x1f5c>
 4004820:	d9003817 	ldw	r4,224(sp)
 4004824:	90c04014 	ori	r3,r18,256
 4004828:	d8c02c15 	stw	r3,176(sp)
 400482c:	20021516 	blt	r4,zero,4005084 <___vfprintf_internal_r+0x1fe4>
 4004830:	dcc03817 	ldw	r19,224(sp)
 4004834:	d8002905 	stb	zero,164(sp)
 4004838:	00801984 	movi	r2,102
 400483c:	8881f926 	beq	r17,r2,4005024 <___vfprintf_internal_r+0x1f84>
 4004840:	00801184 	movi	r2,70
 4004844:	88821c26 	beq	r17,r2,40050b8 <___vfprintf_internal_r+0x2018>
 4004848:	00801144 	movi	r2,69
 400484c:	b081ef26 	beq	r22,r2,400500c <___vfprintf_internal_r+0x1f6c>
 4004850:	d8c02a17 	ldw	r3,168(sp)
 4004854:	d8802104 	addi	r2,sp,132
 4004858:	d8800315 	stw	r2,12(sp)
 400485c:	d9403617 	ldw	r5,216(sp)
 4004860:	d8802504 	addi	r2,sp,148
 4004864:	d9002d17 	ldw	r4,180(sp)
 4004868:	d8800215 	stw	r2,8(sp)
 400486c:	d8802604 	addi	r2,sp,152
 4004870:	d8c00015 	stw	r3,0(sp)
 4004874:	d8800115 	stw	r2,4(sp)
 4004878:	01c00084 	movi	r7,2
 400487c:	980d883a 	mov	r6,r19
 4004880:	d8c03c15 	stw	r3,240(sp)
 4004884:	da003d15 	stw	r8,244(sp)
 4004888:	40057d00 	call	40057d0 <_dtoa_r>
 400488c:	1021883a 	mov	r16,r2
 4004890:	008019c4 	movi	r2,103
 4004894:	d8c03c17 	ldw	r3,240(sp)
 4004898:	da003d17 	ldw	r8,244(sp)
 400489c:	88817126 	beq	r17,r2,4004e64 <___vfprintf_internal_r+0x1dc4>
 40048a0:	008011c4 	movi	r2,71
 40048a4:	88829126 	beq	r17,r2,40052ec <___vfprintf_internal_r+0x224c>
 40048a8:	80f9883a 	add	fp,r16,r3
 40048ac:	d9003617 	ldw	r4,216(sp)
 40048b0:	000d883a 	mov	r6,zero
 40048b4:	000f883a 	mov	r7,zero
 40048b8:	980b883a 	mov	r5,r19
 40048bc:	da003d15 	stw	r8,244(sp)
 40048c0:	400fc800 	call	400fc80 <__eqdf2>
 40048c4:	da003d17 	ldw	r8,244(sp)
 40048c8:	10018d26 	beq	r2,zero,4004f00 <___vfprintf_internal_r+0x1e60>
 40048cc:	d8802117 	ldw	r2,132(sp)
 40048d0:	1700062e 	bgeu	r2,fp,40048ec <___vfprintf_internal_r+0x184c>
 40048d4:	01000c04 	movi	r4,48
 40048d8:	10c00044 	addi	r3,r2,1
 40048dc:	d8c02115 	stw	r3,132(sp)
 40048e0:	11000005 	stb	r4,0(r2)
 40048e4:	d8802117 	ldw	r2,132(sp)
 40048e8:	173ffb36 	bltu	r2,fp,40048d8 <__alt_mem_onchip_memory2_0+0xfbfff718>
 40048ec:	1405c83a 	sub	r2,r2,r16
 40048f0:	d8803315 	stw	r2,204(sp)
 40048f4:	008011c4 	movi	r2,71
 40048f8:	b0817626 	beq	r22,r2,4004ed4 <___vfprintf_internal_r+0x1e34>
 40048fc:	00801944 	movi	r2,101
 4004900:	1442800e 	bge	r2,r17,4005304 <___vfprintf_internal_r+0x2264>
 4004904:	d8c02617 	ldw	r3,152(sp)
 4004908:	00801984 	movi	r2,102
 400490c:	d8c03215 	stw	r3,200(sp)
 4004910:	8881fe26 	beq	r17,r2,400510c <___vfprintf_internal_r+0x206c>
 4004914:	d8c03217 	ldw	r3,200(sp)
 4004918:	d9003317 	ldw	r4,204(sp)
 400491c:	1901dd16 	blt	r3,r4,4005094 <___vfprintf_internal_r+0x1ff4>
 4004920:	9480004c 	andi	r18,r18,1
 4004924:	90022b1e 	bne	r18,zero,40051d4 <___vfprintf_internal_r+0x2134>
 4004928:	1805883a 	mov	r2,r3
 400492c:	18028316 	blt	r3,zero,400533c <___vfprintf_internal_r+0x229c>
 4004930:	d8c03217 	ldw	r3,200(sp)
 4004934:	044019c4 	movi	r17,103
 4004938:	d8c02b15 	stw	r3,172(sp)
 400493c:	df002907 	ldb	fp,164(sp)
 4004940:	e001531e 	bne	fp,zero,4004e90 <___vfprintf_internal_r+0x1df0>
 4004944:	df002783 	ldbu	fp,158(sp)
 4004948:	d8802915 	stw	r2,164(sp)
 400494c:	dc802c17 	ldw	r18,176(sp)
 4004950:	d8002a15 	stw	zero,168(sp)
 4004954:	003baf06 	br	4003814 <__alt_mem_onchip_memory2_0+0xfbffe654>
 4004958:	d8c02e17 	ldw	r3,184(sp)
 400495c:	d9002e17 	ldw	r4,184(sp)
 4004960:	d9402e17 	ldw	r5,184(sp)
 4004964:	18c00017 	ldw	r3,0(r3)
 4004968:	21000117 	ldw	r4,4(r4)
 400496c:	29400204 	addi	r5,r5,8
 4004970:	d8c03615 	stw	r3,216(sp)
 4004974:	d9003815 	stw	r4,224(sp)
 4004978:	d9402e15 	stw	r5,184(sp)
 400497c:	003b5006 	br	40036c0 <__alt_mem_onchip_memory2_0+0xfbffe500>
 4004980:	ac400007 	ldb	r17,0(r21)
 4004984:	003a2806 	br	4003228 <__alt_mem_onchip_memory2_0+0xfbffe068>
 4004988:	9080100c 	andi	r2,r18,64
 400498c:	1000a826 	beq	r2,zero,4004c30 <___vfprintf_internal_r+0x1b90>
 4004990:	d8c02e17 	ldw	r3,184(sp)
 4004994:	002d883a 	mov	r22,zero
 4004998:	1cc0000b 	ldhu	r19,0(r3)
 400499c:	18c00104 	addi	r3,r3,4
 40049a0:	d8c02e15 	stw	r3,184(sp)
 40049a4:	003caf06 	br	4003c64 <__alt_mem_onchip_memory2_0+0xfbffeaa4>
 40049a8:	d9002e17 	ldw	r4,184(sp)
 40049ac:	d9402a17 	ldw	r5,168(sp)
 40049b0:	002d883a 	mov	r22,zero
 40049b4:	20800104 	addi	r2,r4,4
 40049b8:	24c00017 	ldw	r19,0(r4)
 40049bc:	283ebb0e 	bge	r5,zero,40044ac <__alt_mem_onchip_memory2_0+0xfbfff2ec>
 40049c0:	003ef106 	br	4004588 <__alt_mem_onchip_memory2_0+0xfbfff3c8>
 40049c4:	9080040c 	andi	r2,r18,16
 40049c8:	1000921e 	bne	r2,zero,4004c14 <___vfprintf_internal_r+0x1b74>
 40049cc:	9480100c 	andi	r18,r18,64
 40049d0:	90013926 	beq	r18,zero,4004eb8 <___vfprintf_internal_r+0x1e18>
 40049d4:	d9402e17 	ldw	r5,184(sp)
 40049d8:	d8c02f17 	ldw	r3,188(sp)
 40049dc:	28800017 	ldw	r2,0(r5)
 40049e0:	29400104 	addi	r5,r5,4
 40049e4:	d9402e15 	stw	r5,184(sp)
 40049e8:	10c0000d 	sth	r3,0(r2)
 40049ec:	0039e406 	br	4003180 <__alt_mem_onchip_memory2_0+0xfbffdfc0>
 40049f0:	9080100c 	andi	r2,r18,64
 40049f4:	10008026 	beq	r2,zero,4004bf8 <___vfprintf_internal_r+0x1b58>
 40049f8:	d8802e17 	ldw	r2,184(sp)
 40049fc:	14c0000f 	ldh	r19,0(r2)
 4004a00:	10800104 	addi	r2,r2,4
 4004a04:	d8802e15 	stw	r2,184(sp)
 4004a08:	982dd7fa 	srai	r22,r19,31
 4004a0c:	b005883a 	mov	r2,r22
 4004a10:	003af706 	br	40035f0 <__alt_mem_onchip_memory2_0+0xfbffe430>
 4004a14:	9080100c 	andi	r2,r18,64
 4004a18:	d8002785 	stb	zero,158(sp)
 4004a1c:	10008a1e 	bne	r2,zero,4004c48 <___vfprintf_internal_r+0x1ba8>
 4004a20:	d9002e17 	ldw	r4,184(sp)
 4004a24:	d9402a17 	ldw	r5,168(sp)
 4004a28:	002d883a 	mov	r22,zero
 4004a2c:	20800104 	addi	r2,r4,4
 4004a30:	24c00017 	ldw	r19,0(r4)
 4004a34:	283e4b0e 	bge	r5,zero,4004364 <__alt_mem_onchip_memory2_0+0xfbfff1a4>
 4004a38:	9d86b03a 	or	r3,r19,r22
 4004a3c:	d8802e15 	stw	r2,184(sp)
 4004a40:	183e4c1e 	bne	r3,zero,4004374 <__alt_mem_onchip_memory2_0+0xfbfff1b4>
 4004a44:	0039883a 	mov	fp,zero
 4004a48:	0005883a 	mov	r2,zero
 4004a4c:	003d4006 	br	4003f50 <__alt_mem_onchip_memory2_0+0xfbffed90>
 4004a50:	01410074 	movhi	r5,1025
 4004a54:	294f2584 	addi	r5,r5,15510
 4004a58:	d9402c15 	stw	r5,176(sp)
 4004a5c:	d9402c17 	ldw	r5,176(sp)
 4004a60:	1c47883a 	add	r3,r3,r17
 4004a64:	10800044 	addi	r2,r2,1
 4004a68:	41400015 	stw	r5,0(r8)
 4004a6c:	44400115 	stw	r17,4(r8)
 4004a70:	d8c02015 	stw	r3,128(sp)
 4004a74:	d8801f15 	stw	r2,124(sp)
 4004a78:	010001c4 	movi	r4,7
 4004a7c:	20bec816 	blt	r4,r2,40045a0 <__alt_mem_onchip_memory2_0+0xfbfff3e0>
 4004a80:	42000204 	addi	r8,r8,8
 4004a84:	003ecd06 	br	40045bc <__alt_mem_onchip_memory2_0+0xfbfff3fc>
 4004a88:	d9002a17 	ldw	r4,168(sp)
 4004a8c:	d8002785 	stb	zero,158(sp)
 4004a90:	203d2d16 	blt	r4,zero,4003f48 <__alt_mem_onchip_memory2_0+0xfbffed88>
 4004a94:	00bfdfc4 	movi	r2,-129
 4004a98:	90a4703a 	and	r18,r18,r2
 4004a9c:	003a6106 	br	4003424 <__alt_mem_onchip_memory2_0+0xfbffe264>
 4004aa0:	01010074 	movhi	r4,1025
 4004aa4:	210f2584 	addi	r4,r4,15510
 4004aa8:	d9002c15 	stw	r4,176(sp)
 4004aac:	003bea06 	br	4003a58 <__alt_mem_onchip_memory2_0+0xfbffe898>
 4004ab0:	d9002d17 	ldw	r4,180(sp)
 4004ab4:	d9801e04 	addi	r6,sp,120
 4004ab8:	b80b883a 	mov	r5,r23
 4004abc:	400b2680 	call	400b268 <__sprint_r>
 4004ac0:	103a7b1e 	bne	r2,zero,40034b0 <__alt_mem_onchip_memory2_0+0xfbffe2f0>
 4004ac4:	d8c02017 	ldw	r3,128(sp)
 4004ac8:	da000404 	addi	r8,sp,16
 4004acc:	003d4106 	br	4003fd4 <__alt_mem_onchip_memory2_0+0xfbffee14>
 4004ad0:	d8801f17 	ldw	r2,124(sp)
 4004ad4:	01410074 	movhi	r5,1025
 4004ad8:	01000044 	movi	r4,1
 4004adc:	18c00044 	addi	r3,r3,1
 4004ae0:	10800044 	addi	r2,r2,1
 4004ae4:	294f1d04 	addi	r5,r5,15476
 4004ae8:	41000115 	stw	r4,4(r8)
 4004aec:	41400015 	stw	r5,0(r8)
 4004af0:	d8c02015 	stw	r3,128(sp)
 4004af4:	d8801f15 	stw	r2,124(sp)
 4004af8:	010001c4 	movi	r4,7
 4004afc:	20805c16 	blt	r4,r2,4004c70 <___vfprintf_internal_r+0x1bd0>
 4004b00:	42000204 	addi	r8,r8,8
 4004b04:	8800041e 	bne	r17,zero,4004b18 <___vfprintf_internal_r+0x1a78>
 4004b08:	d8803317 	ldw	r2,204(sp)
 4004b0c:	1000021e 	bne	r2,zero,4004b18 <___vfprintf_internal_r+0x1a78>
 4004b10:	9080004c 	andi	r2,r18,1
 4004b14:	103be726 	beq	r2,zero,4003ab4 <__alt_mem_onchip_memory2_0+0xfbffe8f4>
 4004b18:	d9003717 	ldw	r4,220(sp)
 4004b1c:	d8801f17 	ldw	r2,124(sp)
 4004b20:	d9403417 	ldw	r5,208(sp)
 4004b24:	20c7883a 	add	r3,r4,r3
 4004b28:	10800044 	addi	r2,r2,1
 4004b2c:	41000115 	stw	r4,4(r8)
 4004b30:	41400015 	stw	r5,0(r8)
 4004b34:	d8c02015 	stw	r3,128(sp)
 4004b38:	d8801f15 	stw	r2,124(sp)
 4004b3c:	010001c4 	movi	r4,7
 4004b40:	20812116 	blt	r4,r2,4004fc8 <___vfprintf_internal_r+0x1f28>
 4004b44:	42000204 	addi	r8,r8,8
 4004b48:	0463c83a 	sub	r17,zero,r17
 4004b4c:	0440730e 	bge	zero,r17,4004d1c <___vfprintf_internal_r+0x1c7c>
 4004b50:	05800404 	movi	r22,16
 4004b54:	b440860e 	bge	r22,r17,4004d70 <___vfprintf_internal_r+0x1cd0>
 4004b58:	01410074 	movhi	r5,1025
 4004b5c:	294f2584 	addi	r5,r5,15510
 4004b60:	d9402c15 	stw	r5,176(sp)
 4004b64:	070001c4 	movi	fp,7
 4004b68:	dcc02d17 	ldw	r19,180(sp)
 4004b6c:	00000306 	br	4004b7c <___vfprintf_internal_r+0x1adc>
 4004b70:	42000204 	addi	r8,r8,8
 4004b74:	8c7ffc04 	addi	r17,r17,-16
 4004b78:	b440800e 	bge	r22,r17,4004d7c <___vfprintf_internal_r+0x1cdc>
 4004b7c:	18c00404 	addi	r3,r3,16
 4004b80:	10800044 	addi	r2,r2,1
 4004b84:	45000015 	stw	r20,0(r8)
 4004b88:	45800115 	stw	r22,4(r8)
 4004b8c:	d8c02015 	stw	r3,128(sp)
 4004b90:	d8801f15 	stw	r2,124(sp)
 4004b94:	e0bff60e 	bge	fp,r2,4004b70 <__alt_mem_onchip_memory2_0+0xfbfff9b0>
 4004b98:	d9801e04 	addi	r6,sp,120
 4004b9c:	b80b883a 	mov	r5,r23
 4004ba0:	9809883a 	mov	r4,r19
 4004ba4:	400b2680 	call	400b268 <__sprint_r>
 4004ba8:	103a411e 	bne	r2,zero,40034b0 <__alt_mem_onchip_memory2_0+0xfbffe2f0>
 4004bac:	d8c02017 	ldw	r3,128(sp)
 4004bb0:	d8801f17 	ldw	r2,124(sp)
 4004bb4:	da000404 	addi	r8,sp,16
 4004bb8:	003fee06 	br	4004b74 <__alt_mem_onchip_memory2_0+0xfbfff9b4>
 4004bbc:	00bfffc4 	movi	r2,-1
 4004bc0:	003a3f06 	br	40034c0 <__alt_mem_onchip_memory2_0+0xfbffe300>
 4004bc4:	008011c4 	movi	r2,71
 4004bc8:	1440b816 	blt	r2,r17,4004eac <___vfprintf_internal_r+0x1e0c>
 4004bcc:	04010074 	movhi	r16,1025
 4004bd0:	840f0f04 	addi	r16,r16,15420
 4004bd4:	00c000c4 	movi	r3,3
 4004bd8:	00bfdfc4 	movi	r2,-129
 4004bdc:	d8c02915 	stw	r3,164(sp)
 4004be0:	90a4703a 	and	r18,r18,r2
 4004be4:	df002783 	ldbu	fp,158(sp)
 4004be8:	d8c02b15 	stw	r3,172(sp)
 4004bec:	d8002a15 	stw	zero,168(sp)
 4004bf0:	d8003215 	stw	zero,200(sp)
 4004bf4:	003b0706 	br	4003814 <__alt_mem_onchip_memory2_0+0xfbffe654>
 4004bf8:	d8c02e17 	ldw	r3,184(sp)
 4004bfc:	1cc00017 	ldw	r19,0(r3)
 4004c00:	18c00104 	addi	r3,r3,4
 4004c04:	d8c02e15 	stw	r3,184(sp)
 4004c08:	982dd7fa 	srai	r22,r19,31
 4004c0c:	b005883a 	mov	r2,r22
 4004c10:	003a7706 	br	40035f0 <__alt_mem_onchip_memory2_0+0xfbffe430>
 4004c14:	d8c02e17 	ldw	r3,184(sp)
 4004c18:	d9002f17 	ldw	r4,188(sp)
 4004c1c:	18800017 	ldw	r2,0(r3)
 4004c20:	18c00104 	addi	r3,r3,4
 4004c24:	d8c02e15 	stw	r3,184(sp)
 4004c28:	11000015 	stw	r4,0(r2)
 4004c2c:	00395406 	br	4003180 <__alt_mem_onchip_memory2_0+0xfbffdfc0>
 4004c30:	d9002e17 	ldw	r4,184(sp)
 4004c34:	002d883a 	mov	r22,zero
 4004c38:	24c00017 	ldw	r19,0(r4)
 4004c3c:	21000104 	addi	r4,r4,4
 4004c40:	d9002e15 	stw	r4,184(sp)
 4004c44:	003c0706 	br	4003c64 <__alt_mem_onchip_memory2_0+0xfbffeaa4>
 4004c48:	d9402e17 	ldw	r5,184(sp)
 4004c4c:	d8c02a17 	ldw	r3,168(sp)
 4004c50:	002d883a 	mov	r22,zero
 4004c54:	28800104 	addi	r2,r5,4
 4004c58:	2cc0000b 	ldhu	r19,0(r5)
 4004c5c:	183dc10e 	bge	r3,zero,4004364 <__alt_mem_onchip_memory2_0+0xfbfff1a4>
 4004c60:	003f7506 	br	4004a38 <__alt_mem_onchip_memory2_0+0xfbfff878>
 4004c64:	04010074 	movhi	r16,1025
 4004c68:	840f0d04 	addi	r16,r16,15412
 4004c6c:	003aa706 	br	400370c <__alt_mem_onchip_memory2_0+0xfbffe54c>
 4004c70:	d9002d17 	ldw	r4,180(sp)
 4004c74:	d9801e04 	addi	r6,sp,120
 4004c78:	b80b883a 	mov	r5,r23
 4004c7c:	400b2680 	call	400b268 <__sprint_r>
 4004c80:	103a0b1e 	bne	r2,zero,40034b0 <__alt_mem_onchip_memory2_0+0xfbffe2f0>
 4004c84:	dc402617 	ldw	r17,152(sp)
 4004c88:	d8c02017 	ldw	r3,128(sp)
 4004c8c:	da000404 	addi	r8,sp,16
 4004c90:	003f9c06 	br	4004b04 <__alt_mem_onchip_memory2_0+0xfbfff944>
 4004c94:	ac400043 	ldbu	r17,1(r21)
 4004c98:	84000814 	ori	r16,r16,32
 4004c9c:	ad400044 	addi	r21,r21,1
 4004ca0:	8c403fcc 	andi	r17,r17,255
 4004ca4:	8c40201c 	xori	r17,r17,128
 4004ca8:	8c7fe004 	addi	r17,r17,-128
 4004cac:	00395e06 	br	4003228 <__alt_mem_onchip_memory2_0+0xfbffe068>
 4004cb0:	d8c02e15 	stw	r3,184(sp)
 4004cb4:	0039883a 	mov	fp,zero
 4004cb8:	003e3506 	br	4004590 <__alt_mem_onchip_memory2_0+0xfbfff3d0>
 4004cbc:	d9002d17 	ldw	r4,180(sp)
 4004cc0:	d9801e04 	addi	r6,sp,120
 4004cc4:	b80b883a 	mov	r5,r23
 4004cc8:	400b2680 	call	400b268 <__sprint_r>
 4004ccc:	1039f81e 	bne	r2,zero,40034b0 <__alt_mem_onchip_memory2_0+0xfbffe2f0>
 4004cd0:	d8c02017 	ldw	r3,128(sp)
 4004cd4:	da000404 	addi	r8,sp,16
 4004cd8:	003cd006 	br	400401c <__alt_mem_onchip_memory2_0+0xfbffee5c>
 4004cdc:	8009883a 	mov	r4,r16
 4004ce0:	df003d15 	stw	fp,244(sp)
 4004ce4:	4000d4c0 	call	4000d4c <strlen>
 4004ce8:	d8802b15 	stw	r2,172(sp)
 4004cec:	da003d17 	ldw	r8,244(sp)
 4004cf0:	103c200e 	bge	r2,zero,4003d74 <__alt_mem_onchip_memory2_0+0xfbffebb4>
 4004cf4:	0005883a 	mov	r2,zero
 4004cf8:	003c1e06 	br	4003d74 <__alt_mem_onchip_memory2_0+0xfbffebb4>
 4004cfc:	d9002d17 	ldw	r4,180(sp)
 4004d00:	d9801e04 	addi	r6,sp,120
 4004d04:	b80b883a 	mov	r5,r23
 4004d08:	400b2680 	call	400b268 <__sprint_r>
 4004d0c:	1039e81e 	bne	r2,zero,40034b0 <__alt_mem_onchip_memory2_0+0xfbffe2f0>
 4004d10:	d8c02017 	ldw	r3,128(sp)
 4004d14:	d8801f17 	ldw	r2,124(sp)
 4004d18:	da000404 	addi	r8,sp,16
 4004d1c:	d9403317 	ldw	r5,204(sp)
 4004d20:	10800044 	addi	r2,r2,1
 4004d24:	44000015 	stw	r16,0(r8)
 4004d28:	28c7883a 	add	r3,r5,r3
 4004d2c:	003b5b06 	br	4003a9c <__alt_mem_onchip_memory2_0+0xfbffe8dc>
 4004d30:	01010074 	movhi	r4,1025
 4004d34:	210f2984 	addi	r4,r4,15526
 4004d38:	d9003515 	stw	r4,212(sp)
 4004d3c:	003af206 	br	4003908 <__alt_mem_onchip_memory2_0+0xfbffe748>
 4004d40:	013fffc4 	movi	r4,-1
 4004d44:	003a0806 	br	4003568 <__alt_mem_onchip_memory2_0+0xfbffe3a8>
 4004d48:	0023883a 	mov	r17,zero
 4004d4c:	003d9d06 	br	40043c4 <__alt_mem_onchip_memory2_0+0xfbfff204>
 4004d50:	d9002d17 	ldw	r4,180(sp)
 4004d54:	d9801e04 	addi	r6,sp,120
 4004d58:	b80b883a 	mov	r5,r23
 4004d5c:	400b2680 	call	400b268 <__sprint_r>
 4004d60:	1039d31e 	bne	r2,zero,40034b0 <__alt_mem_onchip_memory2_0+0xfbffe2f0>
 4004d64:	d8c02017 	ldw	r3,128(sp)
 4004d68:	da000404 	addi	r8,sp,16
 4004d6c:	003d9406 	br	40043c0 <__alt_mem_onchip_memory2_0+0xfbfff200>
 4004d70:	01010074 	movhi	r4,1025
 4004d74:	210f2584 	addi	r4,r4,15510
 4004d78:	d9002c15 	stw	r4,176(sp)
 4004d7c:	d9002c17 	ldw	r4,176(sp)
 4004d80:	1c47883a 	add	r3,r3,r17
 4004d84:	10800044 	addi	r2,r2,1
 4004d88:	41000015 	stw	r4,0(r8)
 4004d8c:	44400115 	stw	r17,4(r8)
 4004d90:	d8c02015 	stw	r3,128(sp)
 4004d94:	d8801f15 	stw	r2,124(sp)
 4004d98:	010001c4 	movi	r4,7
 4004d9c:	20bfd716 	blt	r4,r2,4004cfc <__alt_mem_onchip_memory2_0+0xfbfffb3c>
 4004da0:	42000204 	addi	r8,r8,8
 4004da4:	003fdd06 	br	4004d1c <__alt_mem_onchip_memory2_0+0xfbfffb5c>
 4004da8:	d9002d17 	ldw	r4,180(sp)
 4004dac:	d9801e04 	addi	r6,sp,120
 4004db0:	b80b883a 	mov	r5,r23
 4004db4:	400b2680 	call	400b268 <__sprint_r>
 4004db8:	1039bd1e 	bne	r2,zero,40034b0 <__alt_mem_onchip_memory2_0+0xfbffe2f0>
 4004dbc:	d8802617 	ldw	r2,152(sp)
 4004dc0:	d8c02017 	ldw	r3,128(sp)
 4004dc4:	da000404 	addi	r8,sp,16
 4004dc8:	003e1006 	br	400460c <__alt_mem_onchip_memory2_0+0xfbfff44c>
 4004dcc:	00800044 	movi	r2,1
 4004dd0:	10803fcc 	andi	r2,r2,255
 4004dd4:	00c00044 	movi	r3,1
 4004dd8:	10fa0d26 	beq	r2,r3,4003610 <__alt_mem_onchip_memory2_0+0xfbffe450>
 4004ddc:	00c00084 	movi	r3,2
 4004de0:	10fbaf26 	beq	r2,r3,4003ca0 <__alt_mem_onchip_memory2_0+0xfbffeae0>
 4004de4:	003a6d06 	br	400379c <__alt_mem_onchip_memory2_0+0xfbffe5dc>
 4004de8:	01010074 	movhi	r4,1025
 4004dec:	210f2984 	addi	r4,r4,15526
 4004df0:	d9003515 	stw	r4,212(sp)
 4004df4:	003b5406 	br	4003b48 <__alt_mem_onchip_memory2_0+0xfbffe988>
 4004df8:	d8802a17 	ldw	r2,168(sp)
 4004dfc:	00c00184 	movi	r3,6
 4004e00:	1880012e 	bgeu	r3,r2,4004e08 <___vfprintf_internal_r+0x1d68>
 4004e04:	1805883a 	mov	r2,r3
 4004e08:	d8802b15 	stw	r2,172(sp)
 4004e0c:	1000ef16 	blt	r2,zero,40051cc <___vfprintf_internal_r+0x212c>
 4004e10:	04010074 	movhi	r16,1025
 4004e14:	d8802915 	stw	r2,164(sp)
 4004e18:	dcc02e15 	stw	r19,184(sp)
 4004e1c:	d8002a15 	stw	zero,168(sp)
 4004e20:	d8003215 	stw	zero,200(sp)
 4004e24:	840f1b04 	addi	r16,r16,15468
 4004e28:	0039883a 	mov	fp,zero
 4004e2c:	003a8006 	br	4003830 <__alt_mem_onchip_memory2_0+0xfbffe670>
 4004e30:	0021883a 	mov	r16,zero
 4004e34:	003e0706 	br	4004654 <__alt_mem_onchip_memory2_0+0xfbfff494>
 4004e38:	d9002d17 	ldw	r4,180(sp)
 4004e3c:	d9801e04 	addi	r6,sp,120
 4004e40:	b80b883a 	mov	r5,r23
 4004e44:	400b2680 	call	400b268 <__sprint_r>
 4004e48:	1039991e 	bne	r2,zero,40034b0 <__alt_mem_onchip_memory2_0+0xfbffe2f0>
 4004e4c:	d8802617 	ldw	r2,152(sp)
 4004e50:	d9403317 	ldw	r5,204(sp)
 4004e54:	d8c02017 	ldw	r3,128(sp)
 4004e58:	da000404 	addi	r8,sp,16
 4004e5c:	2885c83a 	sub	r2,r5,r2
 4004e60:	003dfb06 	br	4004650 <__alt_mem_onchip_memory2_0+0xfbfff490>
 4004e64:	9080004c 	andi	r2,r18,1
 4004e68:	103e8f1e 	bne	r2,zero,40048a8 <__alt_mem_onchip_memory2_0+0xfbfff6e8>
 4004e6c:	d8802117 	ldw	r2,132(sp)
 4004e70:	003e9e06 	br	40048ec <__alt_mem_onchip_memory2_0+0xfbfff72c>
 4004e74:	1025883a 	mov	r18,r2
 4004e78:	0039883a 	mov	fp,zero
 4004e7c:	00800084 	movi	r2,2
 4004e80:	003fd306 	br	4004dd0 <__alt_mem_onchip_memory2_0+0xfbfffc10>
 4004e84:	07000b44 	movi	fp,45
 4004e88:	df002785 	stb	fp,158(sp)
 4004e8c:	003a1b06 	br	40036fc <__alt_mem_onchip_memory2_0+0xfbffe53c>
 4004e90:	00c00b44 	movi	r3,45
 4004e94:	d8c02785 	stb	r3,158(sp)
 4004e98:	d8802915 	stw	r2,164(sp)
 4004e9c:	dc802c17 	ldw	r18,176(sp)
 4004ea0:	d8002a15 	stw	zero,168(sp)
 4004ea4:	07000b44 	movi	fp,45
 4004ea8:	003a5e06 	br	4003824 <__alt_mem_onchip_memory2_0+0xfbffe664>
 4004eac:	04010074 	movhi	r16,1025
 4004eb0:	840f1004 	addi	r16,r16,15424
 4004eb4:	003f4706 	br	4004bd4 <__alt_mem_onchip_memory2_0+0xfbfffa14>
 4004eb8:	d9002e17 	ldw	r4,184(sp)
 4004ebc:	d9402f17 	ldw	r5,188(sp)
 4004ec0:	20800017 	ldw	r2,0(r4)
 4004ec4:	21000104 	addi	r4,r4,4
 4004ec8:	d9002e15 	stw	r4,184(sp)
 4004ecc:	11400015 	stw	r5,0(r2)
 4004ed0:	0038ab06 	br	4003180 <__alt_mem_onchip_memory2_0+0xfbffdfc0>
 4004ed4:	dd802617 	ldw	r22,152(sp)
 4004ed8:	00bfff44 	movi	r2,-3
 4004edc:	b0801c16 	blt	r22,r2,4004f50 <___vfprintf_internal_r+0x1eb0>
 4004ee0:	d9402a17 	ldw	r5,168(sp)
 4004ee4:	2d801a16 	blt	r5,r22,4004f50 <___vfprintf_internal_r+0x1eb0>
 4004ee8:	dd803215 	stw	r22,200(sp)
 4004eec:	003e8906 	br	4004914 <__alt_mem_onchip_memory2_0+0xfbfff754>
 4004ef0:	01010074 	movhi	r4,1025
 4004ef4:	210f2584 	addi	r4,r4,15510
 4004ef8:	d9002c15 	stw	r4,176(sp)
 4004efc:	003c9106 	br	4004144 <__alt_mem_onchip_memory2_0+0xfbffef84>
 4004f00:	e005883a 	mov	r2,fp
 4004f04:	003e7906 	br	40048ec <__alt_mem_onchip_memory2_0+0xfbfff72c>
 4004f08:	d9002a17 	ldw	r4,168(sp)
 4004f0c:	df002783 	ldbu	fp,158(sp)
 4004f10:	dcc02e15 	stw	r19,184(sp)
 4004f14:	d9002915 	stw	r4,164(sp)
 4004f18:	d9002b15 	stw	r4,172(sp)
 4004f1c:	d8002a15 	stw	zero,168(sp)
 4004f20:	d8003215 	stw	zero,200(sp)
 4004f24:	003a3b06 	br	4003814 <__alt_mem_onchip_memory2_0+0xfbffe654>
 4004f28:	9080004c 	andi	r2,r18,1
 4004f2c:	0039883a 	mov	fp,zero
 4004f30:	10000426 	beq	r2,zero,4004f44 <___vfprintf_internal_r+0x1ea4>
 4004f34:	00800c04 	movi	r2,48
 4004f38:	dc001dc4 	addi	r16,sp,119
 4004f3c:	d8801dc5 	stb	r2,119(sp)
 4004f40:	003b6406 	br	4003cd4 <__alt_mem_onchip_memory2_0+0xfbffeb14>
 4004f44:	d8002b15 	stw	zero,172(sp)
 4004f48:	dc001e04 	addi	r16,sp,120
 4004f4c:	003a2b06 	br	40037fc <__alt_mem_onchip_memory2_0+0xfbffe63c>
 4004f50:	8c7fff84 	addi	r17,r17,-2
 4004f54:	b5bfffc4 	addi	r22,r22,-1
 4004f58:	dd802615 	stw	r22,152(sp)
 4004f5c:	dc4022c5 	stb	r17,139(sp)
 4004f60:	b000bf16 	blt	r22,zero,4005260 <___vfprintf_internal_r+0x21c0>
 4004f64:	00800ac4 	movi	r2,43
 4004f68:	d8802305 	stb	r2,140(sp)
 4004f6c:	00800244 	movi	r2,9
 4004f70:	15807016 	blt	r2,r22,4005134 <___vfprintf_internal_r+0x2094>
 4004f74:	00800c04 	movi	r2,48
 4004f78:	b5800c04 	addi	r22,r22,48
 4004f7c:	d8802345 	stb	r2,141(sp)
 4004f80:	dd802385 	stb	r22,142(sp)
 4004f84:	d88023c4 	addi	r2,sp,143
 4004f88:	df0022c4 	addi	fp,sp,139
 4004f8c:	d8c03317 	ldw	r3,204(sp)
 4004f90:	1739c83a 	sub	fp,r2,fp
 4004f94:	d9003317 	ldw	r4,204(sp)
 4004f98:	e0c7883a 	add	r3,fp,r3
 4004f9c:	df003a15 	stw	fp,232(sp)
 4004fa0:	d8c02b15 	stw	r3,172(sp)
 4004fa4:	00800044 	movi	r2,1
 4004fa8:	1100b30e 	bge	r2,r4,4005278 <___vfprintf_internal_r+0x21d8>
 4004fac:	d8c02b17 	ldw	r3,172(sp)
 4004fb0:	18c00044 	addi	r3,r3,1
 4004fb4:	d8c02b15 	stw	r3,172(sp)
 4004fb8:	1805883a 	mov	r2,r3
 4004fbc:	1800ac16 	blt	r3,zero,4005270 <___vfprintf_internal_r+0x21d0>
 4004fc0:	d8003215 	stw	zero,200(sp)
 4004fc4:	003e5d06 	br	400493c <__alt_mem_onchip_memory2_0+0xfbfff77c>
 4004fc8:	d9002d17 	ldw	r4,180(sp)
 4004fcc:	d9801e04 	addi	r6,sp,120
 4004fd0:	b80b883a 	mov	r5,r23
 4004fd4:	400b2680 	call	400b268 <__sprint_r>
 4004fd8:	1039351e 	bne	r2,zero,40034b0 <__alt_mem_onchip_memory2_0+0xfbffe2f0>
 4004fdc:	dc402617 	ldw	r17,152(sp)
 4004fe0:	d8c02017 	ldw	r3,128(sp)
 4004fe4:	d8801f17 	ldw	r2,124(sp)
 4004fe8:	da000404 	addi	r8,sp,16
 4004fec:	003ed606 	br	4004b48 <__alt_mem_onchip_memory2_0+0xfbfff988>
 4004ff0:	182b883a 	mov	r21,r3
 4004ff4:	d8002a15 	stw	zero,168(sp)
 4004ff8:	00388c06 	br	400322c <__alt_mem_onchip_memory2_0+0xfbffe06c>
 4004ffc:	d8802a17 	ldw	r2,168(sp)
 4005000:	103e071e 	bne	r2,zero,4004820 <__alt_mem_onchip_memory2_0+0xfbfff660>
 4005004:	dc002a15 	stw	r16,168(sp)
 4005008:	003e0506 	br	4004820 <__alt_mem_onchip_memory2_0+0xfbfff660>
 400500c:	d9002a17 	ldw	r4,168(sp)
 4005010:	20c00044 	addi	r3,r4,1
 4005014:	003e0f06 	br	4004854 <__alt_mem_onchip_memory2_0+0xfbfff694>
 4005018:	01400184 	movi	r5,6
 400501c:	d9402a15 	stw	r5,168(sp)
 4005020:	003dff06 	br	4004820 <__alt_mem_onchip_memory2_0+0xfbfff660>
 4005024:	d8802104 	addi	r2,sp,132
 4005028:	d8800315 	stw	r2,12(sp)
 400502c:	d8802504 	addi	r2,sp,148
 4005030:	d8800215 	stw	r2,8(sp)
 4005034:	d8802604 	addi	r2,sp,152
 4005038:	d8800115 	stw	r2,4(sp)
 400503c:	d8802a17 	ldw	r2,168(sp)
 4005040:	d9403617 	ldw	r5,216(sp)
 4005044:	d9002d17 	ldw	r4,180(sp)
 4005048:	d8800015 	stw	r2,0(sp)
 400504c:	01c000c4 	movi	r7,3
 4005050:	980d883a 	mov	r6,r19
 4005054:	da003d15 	stw	r8,244(sp)
 4005058:	40057d00 	call	40057d0 <_dtoa_r>
 400505c:	d8c02a17 	ldw	r3,168(sp)
 4005060:	da003d17 	ldw	r8,244(sp)
 4005064:	1021883a 	mov	r16,r2
 4005068:	10f9883a 	add	fp,r2,r3
 400506c:	81000007 	ldb	r4,0(r16)
 4005070:	00800c04 	movi	r2,48
 4005074:	20805e26 	beq	r4,r2,40051f0 <___vfprintf_internal_r+0x2150>
 4005078:	d8c02617 	ldw	r3,152(sp)
 400507c:	e0f9883a 	add	fp,fp,r3
 4005080:	003e0a06 	br	40048ac <__alt_mem_onchip_memory2_0+0xfbfff6ec>
 4005084:	00c00b44 	movi	r3,45
 4005088:	24e0003c 	xorhi	r19,r4,32768
 400508c:	d8c02905 	stb	r3,164(sp)
 4005090:	003de906 	br	4004838 <__alt_mem_onchip_memory2_0+0xfbfff678>
 4005094:	d8c03217 	ldw	r3,200(sp)
 4005098:	00c07a0e 	bge	zero,r3,4005284 <___vfprintf_internal_r+0x21e4>
 400509c:	00800044 	movi	r2,1
 40050a0:	d9003317 	ldw	r4,204(sp)
 40050a4:	1105883a 	add	r2,r2,r4
 40050a8:	d8802b15 	stw	r2,172(sp)
 40050ac:	10004e16 	blt	r2,zero,40051e8 <___vfprintf_internal_r+0x2148>
 40050b0:	044019c4 	movi	r17,103
 40050b4:	003e2106 	br	400493c <__alt_mem_onchip_memory2_0+0xfbfff77c>
 40050b8:	d9002a17 	ldw	r4,168(sp)
 40050bc:	d8802104 	addi	r2,sp,132
 40050c0:	d8800315 	stw	r2,12(sp)
 40050c4:	d9000015 	stw	r4,0(sp)
 40050c8:	d8802504 	addi	r2,sp,148
 40050cc:	d9403617 	ldw	r5,216(sp)
 40050d0:	d9002d17 	ldw	r4,180(sp)
 40050d4:	d8800215 	stw	r2,8(sp)
 40050d8:	d8802604 	addi	r2,sp,152
 40050dc:	d8800115 	stw	r2,4(sp)
 40050e0:	01c000c4 	movi	r7,3
 40050e4:	980d883a 	mov	r6,r19
 40050e8:	da003d15 	stw	r8,244(sp)
 40050ec:	40057d00 	call	40057d0 <_dtoa_r>
 40050f0:	d8c02a17 	ldw	r3,168(sp)
 40050f4:	da003d17 	ldw	r8,244(sp)
 40050f8:	1021883a 	mov	r16,r2
 40050fc:	00801184 	movi	r2,70
 4005100:	80f9883a 	add	fp,r16,r3
 4005104:	88bfd926 	beq	r17,r2,400506c <__alt_mem_onchip_memory2_0+0xfbfffeac>
 4005108:	003de806 	br	40048ac <__alt_mem_onchip_memory2_0+0xfbfff6ec>
 400510c:	d9002a17 	ldw	r4,168(sp)
 4005110:	00c04d0e 	bge	zero,r3,4005248 <___vfprintf_internal_r+0x21a8>
